
launch_is_good_c:     format de fichier elf64-x86-64


Déassemblage de la section .init :

0000000000002000 <_init>:
    2000:	f3 0f 1e fa          	endbr64 
    2004:	48 83 ec 08          	sub    rsp,0x8
    2008:	48 8b 05 99 ef 00 00 	mov    rax,QWORD PTR [rip+0xef99]        # 10fa8 <__gmon_start__@Base>
    200f:	48 85 c0             	test   rax,rax
    2012:	74 02                	je     2016 <_init+0x16>
    2014:	ff d0                	call   rax
    2016:	48 83 c4 08          	add    rsp,0x8
    201a:	c3                   	ret    

Déassemblage de la section .plt :

0000000000002020 <.plt>:
    2020:	ff 35 32 ee 00 00    	push   QWORD PTR [rip+0xee32]        # 10e58 <_GLOBAL_OFFSET_TABLE_+0x8>
    2026:	f2 ff 25 33 ee 00 00 	bnd jmp QWORD PTR [rip+0xee33]        # 10e60 <_GLOBAL_OFFSET_TABLE_+0x10>
    202d:	0f 1f 00             	nop    DWORD PTR [rax]
    2030:	f3 0f 1e fa          	endbr64 
    2034:	68 00 00 00 00       	push   0x0
    2039:	f2 e9 e1 ff ff ff    	bnd jmp 2020 <_init+0x20>
    203f:	90                   	nop
    2040:	f3 0f 1e fa          	endbr64 
    2044:	68 01 00 00 00       	push   0x1
    2049:	f2 e9 d1 ff ff ff    	bnd jmp 2020 <_init+0x20>
    204f:	90                   	nop
    2050:	f3 0f 1e fa          	endbr64 
    2054:	68 02 00 00 00       	push   0x2
    2059:	f2 e9 c1 ff ff ff    	bnd jmp 2020 <_init+0x20>
    205f:	90                   	nop
    2060:	f3 0f 1e fa          	endbr64 
    2064:	68 03 00 00 00       	push   0x3
    2069:	f2 e9 b1 ff ff ff    	bnd jmp 2020 <_init+0x20>
    206f:	90                   	nop
    2070:	f3 0f 1e fa          	endbr64 
    2074:	68 04 00 00 00       	push   0x4
    2079:	f2 e9 a1 ff ff ff    	bnd jmp 2020 <_init+0x20>
    207f:	90                   	nop
    2080:	f3 0f 1e fa          	endbr64 
    2084:	68 05 00 00 00       	push   0x5
    2089:	f2 e9 91 ff ff ff    	bnd jmp 2020 <_init+0x20>
    208f:	90                   	nop
    2090:	f3 0f 1e fa          	endbr64 
    2094:	68 06 00 00 00       	push   0x6
    2099:	f2 e9 81 ff ff ff    	bnd jmp 2020 <_init+0x20>
    209f:	90                   	nop
    20a0:	f3 0f 1e fa          	endbr64 
    20a4:	68 07 00 00 00       	push   0x7
    20a9:	f2 e9 71 ff ff ff    	bnd jmp 2020 <_init+0x20>
    20af:	90                   	nop
    20b0:	f3 0f 1e fa          	endbr64 
    20b4:	68 08 00 00 00       	push   0x8
    20b9:	f2 e9 61 ff ff ff    	bnd jmp 2020 <_init+0x20>
    20bf:	90                   	nop
    20c0:	f3 0f 1e fa          	endbr64 
    20c4:	68 09 00 00 00       	push   0x9
    20c9:	f2 e9 51 ff ff ff    	bnd jmp 2020 <_init+0x20>
    20cf:	90                   	nop
    20d0:	f3 0f 1e fa          	endbr64 
    20d4:	68 0a 00 00 00       	push   0xa
    20d9:	f2 e9 41 ff ff ff    	bnd jmp 2020 <_init+0x20>
    20df:	90                   	nop
    20e0:	f3 0f 1e fa          	endbr64 
    20e4:	68 0b 00 00 00       	push   0xb
    20e9:	f2 e9 31 ff ff ff    	bnd jmp 2020 <_init+0x20>
    20ef:	90                   	nop
    20f0:	f3 0f 1e fa          	endbr64 
    20f4:	68 0c 00 00 00       	push   0xc
    20f9:	f2 e9 21 ff ff ff    	bnd jmp 2020 <_init+0x20>
    20ff:	90                   	nop
    2100:	f3 0f 1e fa          	endbr64 
    2104:	68 0d 00 00 00       	push   0xd
    2109:	f2 e9 11 ff ff ff    	bnd jmp 2020 <_init+0x20>
    210f:	90                   	nop
    2110:	f3 0f 1e fa          	endbr64 
    2114:	68 0e 00 00 00       	push   0xe
    2119:	f2 e9 01 ff ff ff    	bnd jmp 2020 <_init+0x20>
    211f:	90                   	nop
    2120:	f3 0f 1e fa          	endbr64 
    2124:	68 0f 00 00 00       	push   0xf
    2129:	f2 e9 f1 fe ff ff    	bnd jmp 2020 <_init+0x20>
    212f:	90                   	nop
    2130:	f3 0f 1e fa          	endbr64 
    2134:	68 10 00 00 00       	push   0x10
    2139:	f2 e9 e1 fe ff ff    	bnd jmp 2020 <_init+0x20>
    213f:	90                   	nop
    2140:	f3 0f 1e fa          	endbr64 
    2144:	68 11 00 00 00       	push   0x11
    2149:	f2 e9 d1 fe ff ff    	bnd jmp 2020 <_init+0x20>
    214f:	90                   	nop
    2150:	f3 0f 1e fa          	endbr64 
    2154:	68 12 00 00 00       	push   0x12
    2159:	f2 e9 c1 fe ff ff    	bnd jmp 2020 <_init+0x20>
    215f:	90                   	nop
    2160:	f3 0f 1e fa          	endbr64 
    2164:	68 13 00 00 00       	push   0x13
    2169:	f2 e9 b1 fe ff ff    	bnd jmp 2020 <_init+0x20>
    216f:	90                   	nop
    2170:	f3 0f 1e fa          	endbr64 
    2174:	68 14 00 00 00       	push   0x14
    2179:	f2 e9 a1 fe ff ff    	bnd jmp 2020 <_init+0x20>
    217f:	90                   	nop
    2180:	f3 0f 1e fa          	endbr64 
    2184:	68 15 00 00 00       	push   0x15
    2189:	f2 e9 91 fe ff ff    	bnd jmp 2020 <_init+0x20>
    218f:	90                   	nop
    2190:	f3 0f 1e fa          	endbr64 
    2194:	68 16 00 00 00       	push   0x16
    2199:	f2 e9 81 fe ff ff    	bnd jmp 2020 <_init+0x20>
    219f:	90                   	nop
    21a0:	f3 0f 1e fa          	endbr64 
    21a4:	68 17 00 00 00       	push   0x17
    21a9:	f2 e9 71 fe ff ff    	bnd jmp 2020 <_init+0x20>
    21af:	90                   	nop
    21b0:	f3 0f 1e fa          	endbr64 
    21b4:	68 18 00 00 00       	push   0x18
    21b9:	f2 e9 61 fe ff ff    	bnd jmp 2020 <_init+0x20>
    21bf:	90                   	nop
    21c0:	f3 0f 1e fa          	endbr64 
    21c4:	68 19 00 00 00       	push   0x19
    21c9:	f2 e9 51 fe ff ff    	bnd jmp 2020 <_init+0x20>
    21cf:	90                   	nop
    21d0:	f3 0f 1e fa          	endbr64 
    21d4:	68 1a 00 00 00       	push   0x1a
    21d9:	f2 e9 41 fe ff ff    	bnd jmp 2020 <_init+0x20>
    21df:	90                   	nop
    21e0:	f3 0f 1e fa          	endbr64 
    21e4:	68 1b 00 00 00       	push   0x1b
    21e9:	f2 e9 31 fe ff ff    	bnd jmp 2020 <_init+0x20>
    21ef:	90                   	nop
    21f0:	f3 0f 1e fa          	endbr64 
    21f4:	68 1c 00 00 00       	push   0x1c
    21f9:	f2 e9 21 fe ff ff    	bnd jmp 2020 <_init+0x20>
    21ff:	90                   	nop
    2200:	f3 0f 1e fa          	endbr64 
    2204:	68 1d 00 00 00       	push   0x1d
    2209:	f2 e9 11 fe ff ff    	bnd jmp 2020 <_init+0x20>
    220f:	90                   	nop
    2210:	f3 0f 1e fa          	endbr64 
    2214:	68 1e 00 00 00       	push   0x1e
    2219:	f2 e9 01 fe ff ff    	bnd jmp 2020 <_init+0x20>
    221f:	90                   	nop
    2220:	f3 0f 1e fa          	endbr64 
    2224:	68 1f 00 00 00       	push   0x1f
    2229:	f2 e9 f1 fd ff ff    	bnd jmp 2020 <_init+0x20>
    222f:	90                   	nop
    2230:	f3 0f 1e fa          	endbr64 
    2234:	68 20 00 00 00       	push   0x20
    2239:	f2 e9 e1 fd ff ff    	bnd jmp 2020 <_init+0x20>
    223f:	90                   	nop
    2240:	f3 0f 1e fa          	endbr64 
    2244:	68 21 00 00 00       	push   0x21
    2249:	f2 e9 d1 fd ff ff    	bnd jmp 2020 <_init+0x20>
    224f:	90                   	nop
    2250:	f3 0f 1e fa          	endbr64 
    2254:	68 22 00 00 00       	push   0x22
    2259:	f2 e9 c1 fd ff ff    	bnd jmp 2020 <_init+0x20>
    225f:	90                   	nop

Déassemblage de la section .plt.got :

0000000000002260 <COMPARE_N_TYPE_U_CHAR@plt>:
    2260:	f3 0f 1e fa          	endbr64 
    2264:	f2 ff 25 25 ed 00 00 	bnd jmp QWORD PTR [rip+0xed25]        # 10f90 <COMPARE_N_TYPE_U_CHAR@Base>
    226b:	0f 1f 44 00 00       	nop    DWORD PTR [rax+rax*1+0x0]

0000000000002270 <COMPARE_N_TYPE_CHAR@plt>:
    2270:	f3 0f 1e fa          	endbr64 
    2274:	f2 ff 25 1d ed 00 00 	bnd jmp QWORD PTR [rip+0xed1d]        # 10f98 <COMPARE_N_TYPE_CHAR@Base>
    227b:	0f 1f 44 00 00       	nop    DWORD PTR [rax+rax*1+0x0]

0000000000002280 <COMPARE_N_TYPE_L_DOUBLE@plt>:
    2280:	f3 0f 1e fa          	endbr64 
    2284:	f2 ff 25 15 ed 00 00 	bnd jmp QWORD PTR [rip+0xed15]        # 10fa0 <COMPARE_N_TYPE_L_DOUBLE@Base>
    228b:	0f 1f 44 00 00       	nop    DWORD PTR [rax+rax*1+0x0]

0000000000002290 <COMPARE_N_TYPE_SIZE_T@plt>:
    2290:	f3 0f 1e fa          	endbr64 
    2294:	f2 ff 25 15 ed 00 00 	bnd jmp QWORD PTR [rip+0xed15]        # 10fb0 <COMPARE_N_TYPE_SIZE_T@Base>
    229b:	0f 1f 44 00 00       	nop    DWORD PTR [rax+rax*1+0x0]

00000000000022a0 <COMPARE_N_TYPE_L_INT@plt>:
    22a0:	f3 0f 1e fa          	endbr64 
    22a4:	f2 ff 25 0d ed 00 00 	bnd jmp QWORD PTR [rip+0xed0d]        # 10fb8 <COMPARE_N_TYPE_L_INT@Base>
    22ab:	0f 1f 44 00 00       	nop    DWORD PTR [rax+rax*1+0x0]

00000000000022b0 <COMPARE_N_TYPE_FLOAT@plt>:
    22b0:	f3 0f 1e fa          	endbr64 
    22b4:	f2 ff 25 05 ed 00 00 	bnd jmp QWORD PTR [rip+0xed05]        # 10fc0 <COMPARE_N_TYPE_FLOAT@Base>
    22bb:	0f 1f 44 00 00       	nop    DWORD PTR [rax+rax*1+0x0]

00000000000022c0 <COMPARE_N_TYPE_U_INT@plt>:
    22c0:	f3 0f 1e fa          	endbr64 
    22c4:	f2 ff 25 fd ec 00 00 	bnd jmp QWORD PTR [rip+0xecfd]        # 10fc8 <COMPARE_N_TYPE_U_INT@Base>
    22cb:	0f 1f 44 00 00       	nop    DWORD PTR [rax+rax*1+0x0]

00000000000022d0 <COMPARE_N_TYPE_STRING@plt>:
    22d0:	f3 0f 1e fa          	endbr64 
    22d4:	f2 ff 25 f5 ec 00 00 	bnd jmp QWORD PTR [rip+0xecf5]        # 10fd0 <COMPARE_N_TYPE_STRING@Base>
    22db:	0f 1f 44 00 00       	nop    DWORD PTR [rax+rax*1+0x0]

00000000000022e0 <COMPARE_N_TYPE_U_L_INT@plt>:
    22e0:	f3 0f 1e fa          	endbr64 
    22e4:	f2 ff 25 ed ec 00 00 	bnd jmp QWORD PTR [rip+0xeced]        # 10fd8 <COMPARE_N_TYPE_U_L_INT@Base>
    22eb:	0f 1f 44 00 00       	nop    DWORD PTR [rax+rax*1+0x0]

00000000000022f0 <COMPARE_N_TYPE_INT@plt>:
    22f0:	f3 0f 1e fa          	endbr64 
    22f4:	f2 ff 25 e5 ec 00 00 	bnd jmp QWORD PTR [rip+0xece5]        # 10fe0 <COMPARE_N_TYPE_INT@Base>
    22fb:	0f 1f 44 00 00       	nop    DWORD PTR [rax+rax*1+0x0]

0000000000002300 <COMPARE_N_TYPE_DOUBLE@plt>:
    2300:	f3 0f 1e fa          	endbr64 
    2304:	f2 ff 25 dd ec 00 00 	bnd jmp QWORD PTR [rip+0xecdd]        # 10fe8 <COMPARE_N_TYPE_DOUBLE@Base>
    230b:	0f 1f 44 00 00       	nop    DWORD PTR [rax+rax*1+0x0]

0000000000002310 <__cxa_finalize@plt>:
    2310:	f3 0f 1e fa          	endbr64 
    2314:	f2 ff 25 dd ec 00 00 	bnd jmp QWORD PTR [rip+0xecdd]        # 10ff8 <__cxa_finalize@GLIBC_2.2.5>
    231b:	0f 1f 44 00 00       	nop    DWORD PTR [rax+rax*1+0x0]

Déassemblage de la section .plt.sec :

0000000000002320 <COPY_ARRAY_TYPE_INT@plt>:
    2320:	f3 0f 1e fa          	endbr64 
    2324:	f2 ff 25 3d eb 00 00 	bnd jmp QWORD PTR [rip+0xeb3d]        # 10e68 <COPY_ARRAY_TYPE_INT@Base>
    232b:	0f 1f 44 00 00       	nop    DWORD PTR [rax+rax*1+0x0]

0000000000002330 <free@plt>:
    2330:	f3 0f 1e fa          	endbr64 
    2334:	f2 ff 25 35 eb 00 00 	bnd jmp QWORD PTR [rip+0xeb35]        # 10e70 <free@GLIBC_2.2.5>
    233b:	0f 1f 44 00 00       	nop    DWORD PTR [rax+rax*1+0x0]

0000000000002340 <append_func@plt>:
    2340:	f3 0f 1e fa          	endbr64 
    2344:	f2 ff 25 2d eb 00 00 	bnd jmp QWORD PTR [rip+0xeb2d]        # 10e78 <append_func@Base>
    234b:	0f 1f 44 00 00       	nop    DWORD PTR [rax+rax*1+0x0]

0000000000002350 <open_memstream@plt>:
    2350:	f3 0f 1e fa          	endbr64 
    2354:	f2 ff 25 25 eb 00 00 	bnd jmp QWORD PTR [rip+0xeb25]        # 10e80 <open_memstream@GLIBC_2.2.5>
    235b:	0f 1f 44 00 00       	nop    DWORD PTR [rax+rax*1+0x0]

0000000000002360 <puts@plt>:
    2360:	f3 0f 1e fa          	endbr64 
    2364:	f2 ff 25 1d eb 00 00 	bnd jmp QWORD PTR [rip+0xeb1d]        # 10e88 <puts@GLIBC_2.2.5>
    236b:	0f 1f 44 00 00       	nop    DWORD PTR [rax+rax*1+0x0]

0000000000002370 <COPY_ARRAY_TYPE_L_INT@plt>:
    2370:	f3 0f 1e fa          	endbr64 
    2374:	f2 ff 25 15 eb 00 00 	bnd jmp QWORD PTR [rip+0xeb15]        # 10e90 <COPY_ARRAY_TYPE_L_INT@Base>
    237b:	0f 1f 44 00 00       	nop    DWORD PTR [rax+rax*1+0x0]

0000000000002380 <expected_EQ_name_TYPE_L_INT@plt>:
    2380:	f3 0f 1e fa          	endbr64 
    2384:	f2 ff 25 0d eb 00 00 	bnd jmp QWORD PTR [rip+0xeb0d]        # 10e98 <expected_EQ_name_TYPE_L_INT@Base>
    238b:	0f 1f 44 00 00       	nop    DWORD PTR [rax+rax*1+0x0]

0000000000002390 <qsort@plt>:
    2390:	f3 0f 1e fa          	endbr64 
    2394:	f2 ff 25 05 eb 00 00 	bnd jmp QWORD PTR [rip+0xeb05]        # 10ea0 <qsort@GLIBC_2.2.5>
    239b:	0f 1f 44 00 00       	nop    DWORD PTR [rax+rax*1+0x0]

00000000000023a0 <COPY_ARRAY_TYPE_DOUBLE@plt>:
    23a0:	f3 0f 1e fa          	endbr64 
    23a4:	f2 ff 25 fd ea 00 00 	bnd jmp QWORD PTR [rip+0xeafd]        # 10ea8 <COPY_ARRAY_TYPE_DOUBLE@Base>
    23ab:	0f 1f 44 00 00       	nop    DWORD PTR [rax+rax*1+0x0]

00000000000023b0 <fclose@plt>:
    23b0:	f3 0f 1e fa          	endbr64 
    23b4:	f2 ff 25 f5 ea 00 00 	bnd jmp QWORD PTR [rip+0xeaf5]        # 10eb0 <fclose@GLIBC_2.2.5>
    23bb:	0f 1f 44 00 00       	nop    DWORD PTR [rax+rax*1+0x0]

00000000000023c0 <__stack_chk_fail@plt>:
    23c0:	f3 0f 1e fa          	endbr64 
    23c4:	f2 ff 25 ed ea 00 00 	bnd jmp QWORD PTR [rip+0xeaed]        # 10eb8 <__stack_chk_fail@GLIBC_2.4>
    23cb:	0f 1f 44 00 00       	nop    DWORD PTR [rax+rax*1+0x0]

00000000000023d0 <COPY_ARRAY_TYPE_CHAR@plt>:
    23d0:	f3 0f 1e fa          	endbr64 
    23d4:	f2 ff 25 e5 ea 00 00 	bnd jmp QWORD PTR [rip+0xeae5]        # 10ec0 <COPY_ARRAY_TYPE_CHAR@Base>
    23db:	0f 1f 44 00 00       	nop    DWORD PTR [rax+rax*1+0x0]

00000000000023e0 <fputs@plt>:
    23e0:	f3 0f 1e fa          	endbr64 
    23e4:	f2 ff 25 dd ea 00 00 	bnd jmp QWORD PTR [rip+0xeadd]        # 10ec8 <fputs@GLIBC_2.2.5>
    23eb:	0f 1f 44 00 00       	nop    DWORD PTR [rax+rax*1+0x0]

00000000000023f0 <expected_true_f_name@plt>:
    23f0:	f3 0f 1e fa          	endbr64 
    23f4:	f2 ff 25 d5 ea 00 00 	bnd jmp QWORD PTR [rip+0xead5]        # 10ed0 <expected_true_f_name@Base>
    23fb:	0f 1f 44 00 00       	nop    DWORD PTR [rax+rax*1+0x0]

0000000000002400 <expected_EQ_TYPE_L_INT@plt>:
    2400:	f3 0f 1e fa          	endbr64 
    2404:	f2 ff 25 cd ea 00 00 	bnd jmp QWORD PTR [rip+0xeacd]        # 10ed8 <expected_EQ_TYPE_L_INT@Base>
    240b:	0f 1f 44 00 00       	nop    DWORD PTR [rax+rax*1+0x0]

0000000000002410 <COPY_ARRAY_TYPE_U_L_INT@plt>:
    2410:	f3 0f 1e fa          	endbr64 
    2414:	f2 ff 25 c5 ea 00 00 	bnd jmp QWORD PTR [rip+0xeac5]        # 10ee0 <COPY_ARRAY_TYPE_U_L_INT@Base>
    241b:	0f 1f 44 00 00       	nop    DWORD PTR [rax+rax*1+0x0]

0000000000002420 <fputc@plt>:
    2420:	f3 0f 1e fa          	endbr64 
    2424:	f2 ff 25 bd ea 00 00 	bnd jmp QWORD PTR [rip+0xeabd]        # 10ee8 <fputc@GLIBC_2.2.5>
    242b:	0f 1f 44 00 00       	nop    DWORD PTR [rax+rax*1+0x0]

0000000000002430 <COPY_ARRAY_TYPE_U_INT@plt>:
    2430:	f3 0f 1e fa          	endbr64 
    2434:	f2 ff 25 b5 ea 00 00 	bnd jmp QWORD PTR [rip+0xeab5]        # 10ef0 <COPY_ARRAY_TYPE_U_INT@Base>
    243b:	0f 1f 44 00 00       	nop    DWORD PTR [rax+rax*1+0x0]

0000000000002440 <calloc@plt>:
    2440:	f3 0f 1e fa          	endbr64 
    2444:	f2 ff 25 ad ea 00 00 	bnd jmp QWORD PTR [rip+0xeaad]        # 10ef8 <calloc@GLIBC_2.2.5>
    244b:	0f 1f 44 00 00       	nop    DWORD PTR [rax+rax*1+0x0]

0000000000002450 <id_of_thread_executed@plt>:
    2450:	f3 0f 1e fa          	endbr64 
    2454:	f2 ff 25 a5 ea 00 00 	bnd jmp QWORD PTR [rip+0xeaa5]        # 10f00 <id_of_thread_executed@Base>
    245b:	0f 1f 44 00 00       	nop    DWORD PTR [rax+rax*1+0x0]

0000000000002460 <fprintf@plt>:
    2460:	f3 0f 1e fa          	endbr64 
    2464:	f2 ff 25 9d ea 00 00 	bnd jmp QWORD PTR [rip+0xea9d]        # 10f08 <fprintf@GLIBC_2.2.5>
    246b:	0f 1f 44 00 00       	nop    DWORD PTR [rax+rax*1+0x0]

0000000000002470 <expected_true_f@plt>:
    2470:	f3 0f 1e fa          	endbr64 
    2474:	f2 ff 25 95 ea 00 00 	bnd jmp QWORD PTR [rip+0xea95]        # 10f10 <expected_true_f@Base>
    247b:	0f 1f 44 00 00       	nop    DWORD PTR [rax+rax*1+0x0]

0000000000002480 <malloc@plt>:
    2480:	f3 0f 1e fa          	endbr64 
    2484:	f2 ff 25 8d ea 00 00 	bnd jmp QWORD PTR [rip+0xea8d]        # 10f18 <malloc@GLIBC_2.2.5>
    248b:	0f 1f 44 00 00       	nop    DWORD PTR [rax+rax*1+0x0]

0000000000002490 <fflush@plt>:
    2490:	f3 0f 1e fa          	endbr64 
    2494:	f2 ff 25 85 ea 00 00 	bnd jmp QWORD PTR [rip+0xea85]        # 10f20 <fflush@GLIBC_2.2.5>
    249b:	0f 1f 44 00 00       	nop    DWORD PTR [rax+rax*1+0x0]

00000000000024a0 <COPY_ARRAY_TYPE_STRING@plt>:
    24a0:	f3 0f 1e fa          	endbr64 
    24a4:	f2 ff 25 7d ea 00 00 	bnd jmp QWORD PTR [rip+0xea7d]        # 10f28 <COPY_ARRAY_TYPE_STRING@Base>
    24ab:	0f 1f 44 00 00       	nop    DWORD PTR [rax+rax*1+0x0]

00000000000024b0 <COPY_ARRAY_TYPE_FLOAT@plt>:
    24b0:	f3 0f 1e fa          	endbr64 
    24b4:	f2 ff 25 75 ea 00 00 	bnd jmp QWORD PTR [rip+0xea75]        # 10f30 <COPY_ARRAY_TYPE_FLOAT@Base>
    24bb:	0f 1f 44 00 00       	nop    DWORD PTR [rax+rax*1+0x0]

00000000000024c0 <expected_false_f@plt>:
    24c0:	f3 0f 1e fa          	endbr64 
    24c4:	f2 ff 25 6d ea 00 00 	bnd jmp QWORD PTR [rip+0xea6d]        # 10f38 <expected_false_f@Base>
    24cb:	0f 1f 44 00 00       	nop    DWORD PTR [rax+rax*1+0x0]

00000000000024d0 <COPY_ARRAY_TYPE_SIZE_T@plt>:
    24d0:	f3 0f 1e fa          	endbr64 
    24d4:	f2 ff 25 65 ea 00 00 	bnd jmp QWORD PTR [rip+0xea65]        # 10f40 <COPY_ARRAY_TYPE_SIZE_T@Base>
    24db:	0f 1f 44 00 00       	nop    DWORD PTR [rax+rax*1+0x0]

00000000000024e0 <expected_false_f_name@plt>:
    24e0:	f3 0f 1e fa          	endbr64 
    24e4:	f2 ff 25 5d ea 00 00 	bnd jmp QWORD PTR [rip+0xea5d]        # 10f48 <expected_false_f_name@Base>
    24eb:	0f 1f 44 00 00       	nop    DWORD PTR [rax+rax*1+0x0]

00000000000024f0 <run_all_tests_args@plt>:
    24f0:	f3 0f 1e fa          	endbr64 
    24f4:	f2 ff 25 55 ea 00 00 	bnd jmp QWORD PTR [rip+0xea55]        # 10f50 <run_all_tests_args@Base>
    24fb:	0f 1f 44 00 00       	nop    DWORD PTR [rax+rax*1+0x0]

0000000000002500 <fopen@plt>:
    2500:	f3 0f 1e fa          	endbr64 
    2504:	f2 ff 25 4d ea 00 00 	bnd jmp QWORD PTR [rip+0xea4d]        # 10f58 <fopen@GLIBC_2.2.5>
    250b:	0f 1f 44 00 00       	nop    DWORD PTR [rax+rax*1+0x0]

0000000000002510 <COPY_ARRAY_TYPE_L_DOUBLE@plt>:
    2510:	f3 0f 1e fa          	endbr64 
    2514:	f2 ff 25 45 ea 00 00 	bnd jmp QWORD PTR [rip+0xea45]        # 10f60 <COPY_ARRAY_TYPE_L_DOUBLE@Base>
    251b:	0f 1f 44 00 00       	nop    DWORD PTR [rax+rax*1+0x0]

0000000000002520 <exit@plt>:
    2520:	f3 0f 1e fa          	endbr64 
    2524:	f2 ff 25 3d ea 00 00 	bnd jmp QWORD PTR [rip+0xea3d]        # 10f68 <exit@GLIBC_2.2.5>
    252b:	0f 1f 44 00 00       	nop    DWORD PTR [rax+rax*1+0x0]

0000000000002530 <TYPE_L_INT_TO_STR@plt>:
    2530:	f3 0f 1e fa          	endbr64 
    2534:	f2 ff 25 35 ea 00 00 	bnd jmp QWORD PTR [rip+0xea35]        # 10f70 <TYPE_L_INT_TO_STR@Base>
    253b:	0f 1f 44 00 00       	nop    DWORD PTR [rax+rax*1+0x0]

0000000000002540 <COPY_ARRAY_TYPE_U_CHAR@plt>:
    2540:	f3 0f 1e fa          	endbr64 
    2544:	f2 ff 25 2d ea 00 00 	bnd jmp QWORD PTR [rip+0xea2d]        # 10f78 <COPY_ARRAY_TYPE_U_CHAR@Base>
    254b:	0f 1f 44 00 00       	nop    DWORD PTR [rax+rax*1+0x0]

Déassemblage de la section .text :

0000000000002550 <_start>:
    2550:	f3 0f 1e fa          	endbr64 
    2554:	31 ed                	xor    ebp,ebp
    2556:	49 89 d1             	mov    r9,rdx
    2559:	5e                   	pop    rsi
    255a:	48 89 e2             	mov    rdx,rsp
    255d:	48 83 e4 f0          	and    rsp,0xfffffffffffffff0
    2561:	50                   	push   rax
    2562:	54                   	push   rsp
    2563:	45 31 c0             	xor    r8d,r8d
    2566:	31 c9                	xor    ecx,ecx
    2568:	48 8d 3d ea 85 00 00 	lea    rdi,[rip+0x85ea]        # ab59 <main>
    256f:	ff 15 0b ea 00 00    	call   QWORD PTR [rip+0xea0b]        # 10f80 <__libc_start_main@GLIBC_2.34>
    2575:	f4                   	hlt    
    2576:	66 2e 0f 1f 84 00 00 	cs nop WORD PTR [rax+rax*1+0x0]
    257d:	00 00 00 

0000000000002580 <deregister_tm_clones>:
    2580:	48 8d 3d 89 ea 00 00 	lea    rdi,[rip+0xea89]        # 11010 <__TMC_END__>
    2587:	48 8d 05 82 ea 00 00 	lea    rax,[rip+0xea82]        # 11010 <__TMC_END__>
    258e:	48 39 f8             	cmp    rax,rdi
    2591:	74 15                	je     25a8 <deregister_tm_clones+0x28>
    2593:	48 8b 05 ee e9 00 00 	mov    rax,QWORD PTR [rip+0xe9ee]        # 10f88 <_ITM_deregisterTMCloneTable@Base>
    259a:	48 85 c0             	test   rax,rax
    259d:	74 09                	je     25a8 <deregister_tm_clones+0x28>
    259f:	ff e0                	jmp    rax
    25a1:	0f 1f 80 00 00 00 00 	nop    DWORD PTR [rax+0x0]
    25a8:	c3                   	ret    
    25a9:	0f 1f 80 00 00 00 00 	nop    DWORD PTR [rax+0x0]

00000000000025b0 <register_tm_clones>:
    25b0:	48 8d 3d 59 ea 00 00 	lea    rdi,[rip+0xea59]        # 11010 <__TMC_END__>
    25b7:	48 8d 35 52 ea 00 00 	lea    rsi,[rip+0xea52]        # 11010 <__TMC_END__>
    25be:	48 29 fe             	sub    rsi,rdi
    25c1:	48 89 f0             	mov    rax,rsi
    25c4:	48 c1 ee 3f          	shr    rsi,0x3f
    25c8:	48 c1 f8 03          	sar    rax,0x3
    25cc:	48 01 c6             	add    rsi,rax
    25cf:	48 d1 fe             	sar    rsi,1
    25d2:	74 14                	je     25e8 <register_tm_clones+0x38>
    25d4:	48 8b 05 15 ea 00 00 	mov    rax,QWORD PTR [rip+0xea15]        # 10ff0 <_ITM_registerTMCloneTable@Base>
    25db:	48 85 c0             	test   rax,rax
    25de:	74 08                	je     25e8 <register_tm_clones+0x38>
    25e0:	ff e0                	jmp    rax
    25e2:	66 0f 1f 44 00 00    	nop    WORD PTR [rax+rax*1+0x0]
    25e8:	c3                   	ret    
    25e9:	0f 1f 80 00 00 00 00 	nop    DWORD PTR [rax+0x0]

00000000000025f0 <__do_global_dtors_aux>:
    25f0:	f3 0f 1e fa          	endbr64 
    25f4:	80 3d 0d eb 00 00 00 	cmp    BYTE PTR [rip+0xeb0d],0x0        # 11108 <completed.0>
    25fb:	75 2b                	jne    2628 <__do_global_dtors_aux+0x38>
    25fd:	55                   	push   rbp
    25fe:	48 83 3d f2 e9 00 00 	cmp    QWORD PTR [rip+0xe9f2],0x0        # 10ff8 <__cxa_finalize@GLIBC_2.2.5>
    2605:	00 
    2606:	48 89 e5             	mov    rbp,rsp
    2609:	74 0c                	je     2617 <__do_global_dtors_aux+0x27>
    260b:	48 8b 3d f6 e9 00 00 	mov    rdi,QWORD PTR [rip+0xe9f6]        # 11008 <__dso_handle>
    2612:	e8 f9 fc ff ff       	call   2310 <__cxa_finalize@plt>
    2617:	e8 64 ff ff ff       	call   2580 <deregister_tm_clones>
    261c:	c6 05 e5 ea 00 00 01 	mov    BYTE PTR [rip+0xeae5],0x1        # 11108 <completed.0>
    2623:	5d                   	pop    rbp
    2624:	c3                   	ret    
    2625:	0f 1f 00             	nop    DWORD PTR [rax]
    2628:	c3                   	ret    
    2629:	0f 1f 80 00 00 00 00 	nop    DWORD PTR [rax+0x0]

0000000000002630 <frame_dummy>:
    2630:	f3 0f 1e fa          	endbr64 
    2634:	e9 77 ff ff ff       	jmp    25b0 <register_tm_clones>

0000000000002639 <append_test_size_permutation0>:
    2639:	f3 0f 1e fa          	endbr64 
    263d:	55                   	push   rbp
    263e:	48 89 e5             	mov    rbp,rsp
    2641:	48 8d 05 d8 b9 00 00 	lea    rax,[rip+0xb9d8]        # e020 <_IO_stdin_used+0x20>
    2648:	48 89 c6             	mov    rsi,rax
    264b:	48 8d 05 0a 00 00 00 	lea    rax,[rip+0xa]        # 265c <TEST_size_permutation____0>
    2652:	48 89 c7             	mov    rdi,rax
    2655:	e8 e6 fc ff ff       	call   2340 <append_func@plt>
    265a:	5d                   	pop    rbp
    265b:	c3                   	ret    

000000000000265c <TEST_size_permutation____0>:
    265c:	f3 0f 1e fa          	endbr64 
    2660:	55                   	push   rbp
    2661:	48 89 e5             	mov    rbp,rsp
    2664:	53                   	push   rbx
    2665:	48 81 ec d8 00 00 00 	sub    rsp,0xd8
    266c:	64 48 8b 04 25 28 00 	mov    rax,QWORD PTR fs:0x28
    2673:	00 00 
    2675:	48 89 45 e8          	mov    QWORD PTR [rbp-0x18],rax
    2679:	31 c0                	xor    eax,eax
    267b:	bf 03 00 00 00       	mov    edi,0x3
    2680:	e8 eb 89 00 00       	call   b070 <CREATE_PERMUTATION_TYPE_CHAR>
    2685:	48 89 85 38 ff ff ff 	mov    QWORD PTR [rbp-0xc8],rax
    268c:	48 8d 95 28 ff ff ff 	lea    rdx,[rbp-0xd8]
    2693:	48 8d 85 30 ff ff ff 	lea    rax,[rbp-0xd0]
    269a:	48 89 d6             	mov    rsi,rdx
    269d:	48 89 c7             	mov    rdi,rax
    26a0:	e8 ab fc ff ff       	call   2350 <open_memstream@plt>
    26a5:	48 89 85 40 ff ff ff 	mov    QWORD PTR [rbp-0xc0],rax
    26ac:	48 83 bd 40 ff ff ff 	cmp    QWORD PTR [rbp-0xc0],0x0
    26b3:	00 
    26b4:	75 38                	jne    26ee <TEST_size_permutation____0+0x92>
    26b6:	48 8b 05 43 ea 00 00 	mov    rax,QWORD PTR [rip+0xea43]        # 11100 <stderr@GLIBC_2.2.5>
    26bd:	4c 8d 05 3c bc 00 00 	lea    r8,[rip+0xbc3c]        # e300 <__func__.4>
    26c4:	b9 19 00 00 00       	mov    ecx,0x19
    26c9:	48 8d 15 74 b9 00 00 	lea    rdx,[rip+0xb974]        # e044 <_IO_stdin_used+0x44>
    26d0:	48 8d 35 79 b9 00 00 	lea    rsi,[rip+0xb979]        # e050 <_IO_stdin_used+0x50>
    26d7:	48 89 c7             	mov    rdi,rax
    26da:	b8 00 00 00 00       	mov    eax,0x0
    26df:	e8 7c fd ff ff       	call   2460 <fprintf@plt>
    26e4:	bf 00 00 00 00       	mov    edi,0x0
    26e9:	e8 32 fe ff ff       	call   2520 <exit@plt>
    26ee:	48 8b 85 38 ff ff ff 	mov    rax,QWORD PTR [rbp-0xc8]
    26f5:	48 8b 10             	mov    rdx,QWORD PTR [rax]
    26f8:	48 8b 85 40 ff ff ff 	mov    rax,QWORD PTR [rbp-0xc0]
    26ff:	48 8d 0d 6b b9 00 00 	lea    rcx,[rip+0xb96b]        # e071 <_IO_stdin_used+0x71>
    2706:	48 89 ce             	mov    rsi,rcx
    2709:	48 89 c7             	mov    rdi,rax
    270c:	b8 00 00 00 00       	mov    eax,0x0
    2711:	e8 4a fd ff ff       	call   2460 <fprintf@plt>
    2716:	48 8b 85 40 ff ff ff 	mov    rax,QWORD PTR [rbp-0xc0]
    271d:	48 89 c7             	mov    rdi,rax
    2720:	e8 6b fd ff ff       	call   2490 <fflush@plt>
    2725:	0f b6 05 64 e9 00 00 	movzx  eax,BYTE PTR [rip+0xe964]        # 11090 <is_parallel_nb@@Base>
    272c:	84 c0                	test   al,al
    272e:	0f 84 01 01 00 00    	je     2835 <TEST_size_permutation____0+0x1d9>
    2734:	e8 17 fd ff ff       	call   2450 <id_of_thread_executed@plt>
    2739:	48 89 85 50 ff ff ff 	mov    QWORD PTR [rbp-0xb0],rax
    2740:	0f b6 05 d9 e8 00 00 	movzx  eax,BYTE PTR [rip+0xe8d9]        # 11020 <log_parallel@@Base>
    2747:	84 c0                	test   al,al
    2749:	74 76                	je     27c1 <TEST_size_permutation____0+0x165>
    274b:	48 8b 85 30 ff ff ff 	mov    rax,QWORD PTR [rbp-0xd0]
    2752:	48 8b 15 cf e8 00 00 	mov    rdx,QWORD PTR [rip+0xe8cf]        # 11028 <stdout@GLIBC_2.2.5>
    2759:	48 89 d6             	mov    rsi,rdx
    275c:	48 89 c7             	mov    rdi,rax
    275f:	e8 7c fc ff ff       	call   23e0 <fputs@plt>
    2764:	48 83 bd 50 ff ff ff 	cmp    QWORD PTR [rbp-0xb0],0x0
    276b:	00 
    276c:	0f 88 30 01 00 00    	js     28a2 <TEST_size_permutation____0+0x246>
    2772:	48 8b 85 30 ff ff ff 	mov    rax,QWORD PTR [rbp-0xd0]
    2779:	48 8b 0d b0 e8 00 00 	mov    rcx,QWORD PTR [rip+0xe8b0]        # 11030 <f_ou_th@@Base>
    2780:	48 8b 95 50 ff ff ff 	mov    rdx,QWORD PTR [rbp-0xb0]
    2787:	48 c1 e2 03          	shl    rdx,0x3
    278b:	48 01 ca             	add    rdx,rcx
    278e:	48 8b 12             	mov    rdx,QWORD PTR [rdx]
    2791:	48 89 d6             	mov    rsi,rdx
    2794:	48 89 c7             	mov    rdi,rax
    2797:	e8 44 fc ff ff       	call   23e0 <fputs@plt>
    279c:	48 8b 15 8d e8 00 00 	mov    rdx,QWORD PTR [rip+0xe88d]        # 11030 <f_ou_th@@Base>
    27a3:	48 8b 85 50 ff ff ff 	mov    rax,QWORD PTR [rbp-0xb0]
    27aa:	48 c1 e0 03          	shl    rax,0x3
    27ae:	48 01 d0             	add    rax,rdx
    27b1:	48 8b 00             	mov    rax,QWORD PTR [rax]
    27b4:	48 89 c7             	mov    rdi,rax
    27b7:	e8 d4 fc ff ff       	call   2490 <fflush@plt>
    27bc:	e9 e1 00 00 00       	jmp    28a2 <TEST_size_permutation____0+0x246>
    27c1:	48 83 bd 50 ff ff ff 	cmp    QWORD PTR [rbp-0xb0],0x0
    27c8:	00 
    27c9:	78 4f                	js     281a <TEST_size_permutation____0+0x1be>
    27cb:	48 8b 85 30 ff ff ff 	mov    rax,QWORD PTR [rbp-0xd0]
    27d2:	48 8b 0d 57 e8 00 00 	mov    rcx,QWORD PTR [rip+0xe857]        # 11030 <f_ou_th@@Base>
    27d9:	48 8b 95 50 ff ff ff 	mov    rdx,QWORD PTR [rbp-0xb0]
    27e0:	48 c1 e2 03          	shl    rdx,0x3
    27e4:	48 01 ca             	add    rdx,rcx
    27e7:	48 8b 12             	mov    rdx,QWORD PTR [rdx]
    27ea:	48 89 d6             	mov    rsi,rdx
    27ed:	48 89 c7             	mov    rdi,rax
    27f0:	e8 eb fb ff ff       	call   23e0 <fputs@plt>
    27f5:	48 8b 15 34 e8 00 00 	mov    rdx,QWORD PTR [rip+0xe834]        # 11030 <f_ou_th@@Base>
    27fc:	48 8b 85 50 ff ff ff 	mov    rax,QWORD PTR [rbp-0xb0]
    2803:	48 c1 e0 03          	shl    rax,0x3
    2807:	48 01 d0             	add    rax,rdx
    280a:	48 8b 00             	mov    rax,QWORD PTR [rax]
    280d:	48 89 c7             	mov    rdi,rax
    2810:	e8 7b fc ff ff       	call   2490 <fflush@plt>
    2815:	e9 88 00 00 00       	jmp    28a2 <TEST_size_permutation____0+0x246>
    281a:	48 8b 85 30 ff ff ff 	mov    rax,QWORD PTR [rbp-0xd0]
    2821:	48 8b 15 00 e8 00 00 	mov    rdx,QWORD PTR [rip+0xe800]        # 11028 <stdout@GLIBC_2.2.5>
    2828:	48 89 d6             	mov    rsi,rdx
    282b:	48 89 c7             	mov    rdi,rax
    282e:	e8 ad fb ff ff       	call   23e0 <fputs@plt>
    2833:	eb 6d                	jmp    28a2 <TEST_size_permutation____0+0x246>
    2835:	48 8b 05 fc e7 00 00 	mov    rax,QWORD PTR [rip+0xe7fc]        # 11038 <savelog@@Base>
    283c:	48 85 c0             	test   rax,rax
    283f:	74 48                	je     2889 <TEST_size_permutation____0+0x22d>
    2841:	48 8b 05 f0 e7 00 00 	mov    rax,QWORD PTR [rip+0xe7f0]        # 11038 <savelog@@Base>
    2848:	48 8d 15 30 b8 00 00 	lea    rdx,[rip+0xb830]        # e07f <_IO_stdin_used+0x7f>
    284f:	48 89 d6             	mov    rsi,rdx
    2852:	48 89 c7             	mov    rdi,rax
    2855:	e8 a6 fc ff ff       	call   2500 <fopen@plt>
    285a:	48 89 85 48 ff ff ff 	mov    QWORD PTR [rbp-0xb8],rax
    2861:	48 8b 85 30 ff ff ff 	mov    rax,QWORD PTR [rbp-0xd0]
    2868:	48 8b 95 48 ff ff ff 	mov    rdx,QWORD PTR [rbp-0xb8]
    286f:	48 89 d6             	mov    rsi,rdx
    2872:	48 89 c7             	mov    rdi,rax
    2875:	e8 66 fb ff ff       	call   23e0 <fputs@plt>
    287a:	48 8b 85 48 ff ff ff 	mov    rax,QWORD PTR [rbp-0xb8]
    2881:	48 89 c7             	mov    rdi,rax
    2884:	e8 27 fb ff ff       	call   23b0 <fclose@plt>
    2889:	48 8b 85 30 ff ff ff 	mov    rax,QWORD PTR [rbp-0xd0]
    2890:	48 8b 15 91 e7 00 00 	mov    rdx,QWORD PTR [rip+0xe791]        # 11028 <stdout@GLIBC_2.2.5>
    2897:	48 89 d6             	mov    rsi,rdx
    289a:	48 89 c7             	mov    rdi,rax
    289d:	e8 3e fb ff ff       	call   23e0 <fputs@plt>
    28a2:	48 8b 85 40 ff ff ff 	mov    rax,QWORD PTR [rbp-0xc0]
    28a9:	48 89 c7             	mov    rdi,rax
    28ac:	e8 ff fa ff ff       	call   23b0 <fclose@plt>
    28b1:	48 8b 85 30 ff ff ff 	mov    rax,QWORD PTR [rbp-0xd0]
    28b8:	48 89 c7             	mov    rdi,rax
    28bb:	e8 70 fa ff ff       	call   2330 <free@plt>
    28c0:	0f b6 05 c9 e7 00 00 	movzx  eax,BYTE PTR [rip+0xe7c9]        # 11090 <is_parallel_nb@@Base>
    28c7:	83 f0 01             	xor    eax,0x1
    28ca:	84 c0                	test   al,al
    28cc:	0f 84 26 07 00 00    	je     2ff8 <TEST_size_permutation____0+0x99c>
    28d2:	48 8b 85 38 ff ff ff 	mov    rax,QWORD PTR [rbp-0xc8]
    28d9:	48 8b 00             	mov    rax,QWORD PTR [rax]
    28dc:	be 03 00 00 00       	mov    esi,0x3
    28e1:	48 89 c7             	mov    rdi,rax
    28e4:	e8 17 fb ff ff       	call   2400 <expected_EQ_TYPE_L_INT@plt>
    28e9:	84 c0                	test   al,al
    28eb:	0f 84 57 02 00 00    	je     2b48 <TEST_size_permutation____0+0x4ec>
    28f1:	48 8d 95 28 ff ff ff 	lea    rdx,[rbp-0xd8]
    28f8:	48 8d 85 30 ff ff ff 	lea    rax,[rbp-0xd0]
    28ff:	48 89 d6             	mov    rsi,rdx
    2902:	48 89 c7             	mov    rdi,rax
    2905:	e8 46 fa ff ff       	call   2350 <open_memstream@plt>
    290a:	48 89 45 d0          	mov    QWORD PTR [rbp-0x30],rax
    290e:	48 83 7d d0 00       	cmp    QWORD PTR [rbp-0x30],0x0
    2913:	75 38                	jne    294d <TEST_size_permutation____0+0x2f1>
    2915:	48 8b 05 e4 e7 00 00 	mov    rax,QWORD PTR [rip+0xe7e4]        # 11100 <stderr@GLIBC_2.2.5>
    291c:	4c 8d 05 dd b9 00 00 	lea    r8,[rip+0xb9dd]        # e300 <__func__.4>
    2923:	b9 1a 00 00 00       	mov    ecx,0x1a
    2928:	48 8d 15 15 b7 00 00 	lea    rdx,[rip+0xb715]        # e044 <_IO_stdin_used+0x44>
    292f:	48 8d 35 1a b7 00 00 	lea    rsi,[rip+0xb71a]        # e050 <_IO_stdin_used+0x50>
    2936:	48 89 c7             	mov    rdi,rax
    2939:	b8 00 00 00 00       	mov    eax,0x0
    293e:	e8 1d fb ff ff       	call   2460 <fprintf@plt>
    2943:	bf 00 00 00 00       	mov    edi,0x0
    2948:	e8 d3 fb ff ff       	call   2520 <exit@plt>
    294d:	8b 05 4d e7 00 00    	mov    eax,DWORD PTR [rip+0xe74d]        # 110a0 <k_DEFAULT@@Base>
    2953:	48 98                	cdqe   
    2955:	48 8d 14 c5 00 00 00 	lea    rdx,[rax*8+0x0]
    295c:	00 
    295d:	48 8d 05 5c e7 00 00 	lea    rax,[rip+0xe75c]        # 110c0 <colors_f@@Base>
    2964:	48 8b 34 02          	mov    rsi,QWORD PTR [rdx+rax*1]
    2968:	8b 05 12 e7 00 00    	mov    eax,DWORD PTR [rip+0xe712]        # 11080 <hk_TR@@Base>
    296e:	48 98                	cdqe   
    2970:	48 8d 14 c5 00 00 00 	lea    rdx,[rax*8+0x0]
    2977:	00 
    2978:	48 8d 05 c1 e6 00 00 	lea    rax,[rip+0xe6c1]        # 11040 <tab_hk_f@@Base>
    297f:	48 8b 0c 02          	mov    rcx,QWORD PTR [rdx+rax*1]
    2983:	8b 05 67 e7 00 00    	mov    eax,DWORD PTR [rip+0xe767]        # 110f0 <k_GREEN@@Base>
    2989:	48 98                	cdqe   
    298b:	48 8d 14 c5 00 00 00 	lea    rdx,[rax*8+0x0]
    2992:	00 
    2993:	48 8d 05 26 e7 00 00 	lea    rax,[rip+0xe726]        # 110c0 <colors_f@@Base>
    299a:	48 8b 14 02          	mov    rdx,QWORD PTR [rdx+rax*1]
    299e:	48 8b 45 d0          	mov    rax,QWORD PTR [rbp-0x30]
    29a2:	4c 8d 0d 57 b9 00 00 	lea    r9,[rip+0xb957]        # e300 <__func__.4>
    29a9:	49 89 f0             	mov    r8,rsi
    29ac:	48 8d 35 d5 b6 00 00 	lea    rsi,[rip+0xb6d5]        # e088 <_IO_stdin_used+0x88>
    29b3:	48 89 c7             	mov    rdi,rax
    29b6:	b8 00 00 00 00       	mov    eax,0x0
    29bb:	e8 a0 fa ff ff       	call   2460 <fprintf@plt>
    29c0:	48 8b 45 d0          	mov    rax,QWORD PTR [rbp-0x30]
    29c4:	48 89 c7             	mov    rdi,rax
    29c7:	e8 c4 fa ff ff       	call   2490 <fflush@plt>
    29cc:	0f b6 05 bd e6 00 00 	movzx  eax,BYTE PTR [rip+0xe6bd]        # 11090 <is_parallel_nb@@Base>
    29d3:	84 c0                	test   al,al
    29d5:	0f 84 e9 00 00 00    	je     2ac4 <TEST_size_permutation____0+0x468>
    29db:	e8 70 fa ff ff       	call   2450 <id_of_thread_executed@plt>
    29e0:	48 89 45 e0          	mov    QWORD PTR [rbp-0x20],rax
    29e4:	0f b6 05 35 e6 00 00 	movzx  eax,BYTE PTR [rip+0xe635]        # 11020 <log_parallel@@Base>
    29eb:	84 c0                	test   al,al
    29ed:	74 6d                	je     2a5c <TEST_size_permutation____0+0x400>
    29ef:	48 8b 85 30 ff ff ff 	mov    rax,QWORD PTR [rbp-0xd0]
    29f6:	48 8b 15 2b e6 00 00 	mov    rdx,QWORD PTR [rip+0xe62b]        # 11028 <stdout@GLIBC_2.2.5>
    29fd:	48 89 d6             	mov    rsi,rdx
    2a00:	48 89 c7             	mov    rdi,rax
    2a03:	e8 d8 f9 ff ff       	call   23e0 <fputs@plt>
    2a08:	48 83 7d e0 00       	cmp    QWORD PTR [rbp-0x20],0x0
    2a0d:	0f 88 15 01 00 00    	js     2b28 <TEST_size_permutation____0+0x4cc>
    2a13:	48 8b 85 30 ff ff ff 	mov    rax,QWORD PTR [rbp-0xd0]
    2a1a:	48 8b 0d 0f e6 00 00 	mov    rcx,QWORD PTR [rip+0xe60f]        # 11030 <f_ou_th@@Base>
    2a21:	48 8b 55 e0          	mov    rdx,QWORD PTR [rbp-0x20]
    2a25:	48 c1 e2 03          	shl    rdx,0x3
    2a29:	48 01 ca             	add    rdx,rcx
    2a2c:	48 8b 12             	mov    rdx,QWORD PTR [rdx]
    2a2f:	48 89 d6             	mov    rsi,rdx
    2a32:	48 89 c7             	mov    rdi,rax
    2a35:	e8 a6 f9 ff ff       	call   23e0 <fputs@plt>
    2a3a:	48 8b 15 ef e5 00 00 	mov    rdx,QWORD PTR [rip+0xe5ef]        # 11030 <f_ou_th@@Base>
    2a41:	48 8b 45 e0          	mov    rax,QWORD PTR [rbp-0x20]
    2a45:	48 c1 e0 03          	shl    rax,0x3
    2a49:	48 01 d0             	add    rax,rdx
    2a4c:	48 8b 00             	mov    rax,QWORD PTR [rax]
    2a4f:	48 89 c7             	mov    rdi,rax
    2a52:	e8 39 fa ff ff       	call   2490 <fflush@plt>
    2a57:	e9 cc 00 00 00       	jmp    2b28 <TEST_size_permutation____0+0x4cc>
    2a5c:	48 83 7d e0 00       	cmp    QWORD PTR [rbp-0x20],0x0
    2a61:	78 46                	js     2aa9 <TEST_size_permutation____0+0x44d>
    2a63:	48 8b 85 30 ff ff ff 	mov    rax,QWORD PTR [rbp-0xd0]
    2a6a:	48 8b 0d bf e5 00 00 	mov    rcx,QWORD PTR [rip+0xe5bf]        # 11030 <f_ou_th@@Base>
    2a71:	48 8b 55 e0          	mov    rdx,QWORD PTR [rbp-0x20]
    2a75:	48 c1 e2 03          	shl    rdx,0x3
    2a79:	48 01 ca             	add    rdx,rcx
    2a7c:	48 8b 12             	mov    rdx,QWORD PTR [rdx]
    2a7f:	48 89 d6             	mov    rsi,rdx
    2a82:	48 89 c7             	mov    rdi,rax
    2a85:	e8 56 f9 ff ff       	call   23e0 <fputs@plt>
    2a8a:	48 8b 15 9f e5 00 00 	mov    rdx,QWORD PTR [rip+0xe59f]        # 11030 <f_ou_th@@Base>
    2a91:	48 8b 45 e0          	mov    rax,QWORD PTR [rbp-0x20]
    2a95:	48 c1 e0 03          	shl    rax,0x3
    2a99:	48 01 d0             	add    rax,rdx
    2a9c:	48 8b 00             	mov    rax,QWORD PTR [rax]
    2a9f:	48 89 c7             	mov    rdi,rax
    2aa2:	e8 e9 f9 ff ff       	call   2490 <fflush@plt>
    2aa7:	eb 7f                	jmp    2b28 <TEST_size_permutation____0+0x4cc>
    2aa9:	48 8b 85 30 ff ff ff 	mov    rax,QWORD PTR [rbp-0xd0]
    2ab0:	48 8b 15 71 e5 00 00 	mov    rdx,QWORD PTR [rip+0xe571]        # 11028 <stdout@GLIBC_2.2.5>
    2ab7:	48 89 d6             	mov    rsi,rdx
    2aba:	48 89 c7             	mov    rdi,rax
    2abd:	e8 1e f9 ff ff       	call   23e0 <fputs@plt>
    2ac2:	eb 64                	jmp    2b28 <TEST_size_permutation____0+0x4cc>
    2ac4:	48 8b 05 6d e5 00 00 	mov    rax,QWORD PTR [rip+0xe56d]        # 11038 <savelog@@Base>
    2acb:	48 85 c0             	test   rax,rax
    2ace:	74 3f                	je     2b0f <TEST_size_permutation____0+0x4b3>
    2ad0:	48 8b 05 61 e5 00 00 	mov    rax,QWORD PTR [rip+0xe561]        # 11038 <savelog@@Base>
    2ad7:	48 8d 15 a1 b5 00 00 	lea    rdx,[rip+0xb5a1]        # e07f <_IO_stdin_used+0x7f>
    2ade:	48 89 d6             	mov    rsi,rdx
    2ae1:	48 89 c7             	mov    rdi,rax
    2ae4:	e8 17 fa ff ff       	call   2500 <fopen@plt>
    2ae9:	48 89 45 d8          	mov    QWORD PTR [rbp-0x28],rax
    2aed:	48 8b 85 30 ff ff ff 	mov    rax,QWORD PTR [rbp-0xd0]
    2af4:	48 8b 55 d8          	mov    rdx,QWORD PTR [rbp-0x28]
    2af8:	48 89 d6             	mov    rsi,rdx
    2afb:	48 89 c7             	mov    rdi,rax
    2afe:	e8 dd f8 ff ff       	call   23e0 <fputs@plt>
    2b03:	48 8b 45 d8          	mov    rax,QWORD PTR [rbp-0x28]
    2b07:	48 89 c7             	mov    rdi,rax
    2b0a:	e8 a1 f8 ff ff       	call   23b0 <fclose@plt>
    2b0f:	48 8b 85 30 ff ff ff 	mov    rax,QWORD PTR [rbp-0xd0]
    2b16:	48 8b 15 0b e5 00 00 	mov    rdx,QWORD PTR [rip+0xe50b]        # 11028 <stdout@GLIBC_2.2.5>
    2b1d:	48 89 d6             	mov    rsi,rdx
    2b20:	48 89 c7             	mov    rdi,rax
    2b23:	e8 b8 f8 ff ff       	call   23e0 <fputs@plt>
    2b28:	48 8b 45 d0          	mov    rax,QWORD PTR [rbp-0x30]
    2b2c:	48 89 c7             	mov    rdi,rax
    2b2f:	e8 7c f8 ff ff       	call   23b0 <fclose@plt>
    2b34:	48 8b 85 30 ff ff ff 	mov    rax,QWORD PTR [rbp-0xd0]
    2b3b:	48 89 c7             	mov    rdi,rax
    2b3e:	e8 ed f7 ff ff       	call   2330 <free@plt>
    2b43:	e9 29 0c 00 00       	jmp    3771 <TEST_size_permutation____0+0x1115>
    2b48:	48 8d 95 28 ff ff ff 	lea    rdx,[rbp-0xd8]
    2b4f:	48 8d 85 30 ff ff ff 	lea    rax,[rbp-0xd0]
    2b56:	48 89 d6             	mov    rsi,rdx
    2b59:	48 89 c7             	mov    rdi,rax
    2b5c:	e8 ef f7 ff ff       	call   2350 <open_memstream@plt>
    2b61:	48 89 45 a0          	mov    QWORD PTR [rbp-0x60],rax
    2b65:	48 83 7d a0 00       	cmp    QWORD PTR [rbp-0x60],0x0
    2b6a:	75 38                	jne    2ba4 <TEST_size_permutation____0+0x548>
    2b6c:	48 8b 05 8d e5 00 00 	mov    rax,QWORD PTR [rip+0xe58d]        # 11100 <stderr@GLIBC_2.2.5>
    2b73:	4c 8d 05 86 b7 00 00 	lea    r8,[rip+0xb786]        # e300 <__func__.4>
    2b7a:	b9 1a 00 00 00       	mov    ecx,0x1a
    2b7f:	48 8d 15 be b4 00 00 	lea    rdx,[rip+0xb4be]        # e044 <_IO_stdin_used+0x44>
    2b86:	48 8d 35 c3 b4 00 00 	lea    rsi,[rip+0xb4c3]        # e050 <_IO_stdin_used+0x50>
    2b8d:	48 89 c7             	mov    rdi,rax
    2b90:	b8 00 00 00 00       	mov    eax,0x0
    2b95:	e8 c6 f8 ff ff       	call   2460 <fprintf@plt>
    2b9a:	bf 00 00 00 00       	mov    edi,0x0
    2b9f:	e8 7c f9 ff ff       	call   2520 <exit@plt>
    2ba4:	bf 03 00 00 00       	mov    edi,0x3
    2ba9:	e8 82 f9 ff ff       	call   2530 <TYPE_L_INT_TO_STR@plt>
    2bae:	48 89 c3             	mov    rbx,rax
    2bb1:	48 8b 85 38 ff ff ff 	mov    rax,QWORD PTR [rbp-0xc8]
    2bb8:	48 8b 00             	mov    rax,QWORD PTR [rax]
    2bbb:	48 89 c7             	mov    rdi,rax
    2bbe:	e8 6d f9 ff ff       	call   2530 <TYPE_L_INT_TO_STR@plt>
    2bc3:	48 89 c2             	mov    rdx,rax
    2bc6:	48 8b 45 a0          	mov    rax,QWORD PTR [rbp-0x60]
    2bca:	53                   	push   rbx
    2bcb:	48 8d 0d 30 b5 00 00 	lea    rcx,[rip+0xb530]        # e102 <_IO_stdin_used+0x102>
    2bd2:	51                   	push   rcx
    2bd3:	52                   	push   rdx
    2bd4:	48 8d 15 cd b4 00 00 	lea    rdx,[rip+0xb4cd]        # e0a8 <_IO_stdin_used+0xa8>
    2bdb:	52                   	push   rdx
    2bdc:	48 8d 15 1f b5 00 00 	lea    rdx,[rip+0xb51f]        # e102 <_IO_stdin_used+0x102>
    2be3:	52                   	push   rdx
    2be4:	48 8d 15 19 b5 00 00 	lea    rdx,[rip+0xb519]        # e104 <_IO_stdin_used+0x104>
    2beb:	52                   	push   rdx
    2bec:	4c 8d 0d b5 b4 00 00 	lea    r9,[rip+0xb4b5]        # e0a8 <_IO_stdin_used+0xa8>
    2bf3:	4c 8d 05 06 b7 00 00 	lea    r8,[rip+0xb706]        # e300 <__func__.4>
    2bfa:	b9 1a 00 00 00       	mov    ecx,0x1a
    2bff:	48 8d 15 3e b4 00 00 	lea    rdx,[rip+0xb43e]        # e044 <_IO_stdin_used+0x44>
    2c06:	48 8d 35 a3 b4 00 00 	lea    rsi,[rip+0xb4a3]        # e0b0 <_IO_stdin_used+0xb0>
    2c0d:	48 89 c7             	mov    rdi,rax
    2c10:	b8 00 00 00 00       	mov    eax,0x0
    2c15:	e8 46 f8 ff ff       	call   2460 <fprintf@plt>
    2c1a:	48 83 c4 30          	add    rsp,0x30
    2c1e:	48 8b 45 a0          	mov    rax,QWORD PTR [rbp-0x60]
    2c22:	48 89 c7             	mov    rdi,rax
    2c25:	e8 66 f8 ff ff       	call   2490 <fflush@plt>
    2c2a:	0f b6 05 5f e4 00 00 	movzx  eax,BYTE PTR [rip+0xe45f]        # 11090 <is_parallel_nb@@Base>
    2c31:	84 c0                	test   al,al
    2c33:	0f 84 e9 00 00 00    	je     2d22 <TEST_size_permutation____0+0x6c6>
    2c39:	e8 12 f8 ff ff       	call   2450 <id_of_thread_executed@plt>
    2c3e:	48 89 45 b0          	mov    QWORD PTR [rbp-0x50],rax
    2c42:	0f b6 05 d7 e3 00 00 	movzx  eax,BYTE PTR [rip+0xe3d7]        # 11020 <log_parallel@@Base>
    2c49:	84 c0                	test   al,al
    2c4b:	74 6d                	je     2cba <TEST_size_permutation____0+0x65e>
    2c4d:	48 8b 85 30 ff ff ff 	mov    rax,QWORD PTR [rbp-0xd0]
    2c54:	48 8b 15 cd e3 00 00 	mov    rdx,QWORD PTR [rip+0xe3cd]        # 11028 <stdout@GLIBC_2.2.5>
    2c5b:	48 89 d6             	mov    rsi,rdx
    2c5e:	48 89 c7             	mov    rdi,rax
    2c61:	e8 7a f7 ff ff       	call   23e0 <fputs@plt>
    2c66:	48 83 7d b0 00       	cmp    QWORD PTR [rbp-0x50],0x0
    2c6b:	0f 88 15 01 00 00    	js     2d86 <TEST_size_permutation____0+0x72a>
    2c71:	48 8b 85 30 ff ff ff 	mov    rax,QWORD PTR [rbp-0xd0]
    2c78:	48 8b 0d b1 e3 00 00 	mov    rcx,QWORD PTR [rip+0xe3b1]        # 11030 <f_ou_th@@Base>
    2c7f:	48 8b 55 b0          	mov    rdx,QWORD PTR [rbp-0x50]
    2c83:	48 c1 e2 03          	shl    rdx,0x3
    2c87:	48 01 ca             	add    rdx,rcx
    2c8a:	48 8b 12             	mov    rdx,QWORD PTR [rdx]
    2c8d:	48 89 d6             	mov    rsi,rdx
    2c90:	48 89 c7             	mov    rdi,rax
    2c93:	e8 48 f7 ff ff       	call   23e0 <fputs@plt>
    2c98:	48 8b 15 91 e3 00 00 	mov    rdx,QWORD PTR [rip+0xe391]        # 11030 <f_ou_th@@Base>
    2c9f:	48 8b 45 b0          	mov    rax,QWORD PTR [rbp-0x50]
    2ca3:	48 c1 e0 03          	shl    rax,0x3
    2ca7:	48 01 d0             	add    rax,rdx
    2caa:	48 8b 00             	mov    rax,QWORD PTR [rax]
    2cad:	48 89 c7             	mov    rdi,rax
    2cb0:	e8 db f7 ff ff       	call   2490 <fflush@plt>
    2cb5:	e9 cc 00 00 00       	jmp    2d86 <TEST_size_permutation____0+0x72a>
    2cba:	48 83 7d b0 00       	cmp    QWORD PTR [rbp-0x50],0x0
    2cbf:	78 46                	js     2d07 <TEST_size_permutation____0+0x6ab>
    2cc1:	48 8b 85 30 ff ff ff 	mov    rax,QWORD PTR [rbp-0xd0]
    2cc8:	48 8b 0d 61 e3 00 00 	mov    rcx,QWORD PTR [rip+0xe361]        # 11030 <f_ou_th@@Base>
    2ccf:	48 8b 55 b0          	mov    rdx,QWORD PTR [rbp-0x50]
    2cd3:	48 c1 e2 03          	shl    rdx,0x3
    2cd7:	48 01 ca             	add    rdx,rcx
    2cda:	48 8b 12             	mov    rdx,QWORD PTR [rdx]
    2cdd:	48 89 d6             	mov    rsi,rdx
    2ce0:	48 89 c7             	mov    rdi,rax
    2ce3:	e8 f8 f6 ff ff       	call   23e0 <fputs@plt>
    2ce8:	48 8b 15 41 e3 00 00 	mov    rdx,QWORD PTR [rip+0xe341]        # 11030 <f_ou_th@@Base>
    2cef:	48 8b 45 b0          	mov    rax,QWORD PTR [rbp-0x50]
    2cf3:	48 c1 e0 03          	shl    rax,0x3
    2cf7:	48 01 d0             	add    rax,rdx
    2cfa:	48 8b 00             	mov    rax,QWORD PTR [rax]
    2cfd:	48 89 c7             	mov    rdi,rax
    2d00:	e8 8b f7 ff ff       	call   2490 <fflush@plt>
    2d05:	eb 7f                	jmp    2d86 <TEST_size_permutation____0+0x72a>
    2d07:	48 8b 85 30 ff ff ff 	mov    rax,QWORD PTR [rbp-0xd0]
    2d0e:	48 8b 15 13 e3 00 00 	mov    rdx,QWORD PTR [rip+0xe313]        # 11028 <stdout@GLIBC_2.2.5>
    2d15:	48 89 d6             	mov    rsi,rdx
    2d18:	48 89 c7             	mov    rdi,rax
    2d1b:	e8 c0 f6 ff ff       	call   23e0 <fputs@plt>
    2d20:	eb 64                	jmp    2d86 <TEST_size_permutation____0+0x72a>
    2d22:	48 8b 05 0f e3 00 00 	mov    rax,QWORD PTR [rip+0xe30f]        # 11038 <savelog@@Base>
    2d29:	48 85 c0             	test   rax,rax
    2d2c:	74 3f                	je     2d6d <TEST_size_permutation____0+0x711>
    2d2e:	48 8b 05 03 e3 00 00 	mov    rax,QWORD PTR [rip+0xe303]        # 11038 <savelog@@Base>
    2d35:	48 8d 15 43 b3 00 00 	lea    rdx,[rip+0xb343]        # e07f <_IO_stdin_used+0x7f>
    2d3c:	48 89 d6             	mov    rsi,rdx
    2d3f:	48 89 c7             	mov    rdi,rax
    2d42:	e8 b9 f7 ff ff       	call   2500 <fopen@plt>
    2d47:	48 89 45 a8          	mov    QWORD PTR [rbp-0x58],rax
    2d4b:	48 8b 85 30 ff ff ff 	mov    rax,QWORD PTR [rbp-0xd0]
    2d52:	48 8b 55 a8          	mov    rdx,QWORD PTR [rbp-0x58]
    2d56:	48 89 d6             	mov    rsi,rdx
    2d59:	48 89 c7             	mov    rdi,rax
    2d5c:	e8 7f f6 ff ff       	call   23e0 <fputs@plt>
    2d61:	48 8b 45 a8          	mov    rax,QWORD PTR [rbp-0x58]
    2d65:	48 89 c7             	mov    rdi,rax
    2d68:	e8 43 f6 ff ff       	call   23b0 <fclose@plt>
    2d6d:	48 8b 85 30 ff ff ff 	mov    rax,QWORD PTR [rbp-0xd0]
    2d74:	48 8b 15 ad e2 00 00 	mov    rdx,QWORD PTR [rip+0xe2ad]        # 11028 <stdout@GLIBC_2.2.5>
    2d7b:	48 89 d6             	mov    rsi,rdx
    2d7e:	48 89 c7             	mov    rdi,rax
    2d81:	e8 5a f6 ff ff       	call   23e0 <fputs@plt>
    2d86:	48 8b 45 a0          	mov    rax,QWORD PTR [rbp-0x60]
    2d8a:	48 89 c7             	mov    rdi,rax
    2d8d:	e8 1e f6 ff ff       	call   23b0 <fclose@plt>
    2d92:	48 8b 85 30 ff ff ff 	mov    rax,QWORD PTR [rbp-0xd0]
    2d99:	48 89 c7             	mov    rdi,rax
    2d9c:	e8 8f f5 ff ff       	call   2330 <free@plt>
    2da1:	48 8d 95 28 ff ff ff 	lea    rdx,[rbp-0xd8]
    2da8:	48 8d 85 30 ff ff ff 	lea    rax,[rbp-0xd0]
    2daf:	48 89 d6             	mov    rsi,rdx
    2db2:	48 89 c7             	mov    rdi,rax
    2db5:	e8 96 f5 ff ff       	call   2350 <open_memstream@plt>
    2dba:	48 89 45 b8          	mov    QWORD PTR [rbp-0x48],rax
    2dbe:	48 83 7d b8 00       	cmp    QWORD PTR [rbp-0x48],0x0
    2dc3:	75 38                	jne    2dfd <TEST_size_permutation____0+0x7a1>
    2dc5:	48 8b 05 34 e3 00 00 	mov    rax,QWORD PTR [rip+0xe334]        # 11100 <stderr@GLIBC_2.2.5>
    2dcc:	4c 8d 05 2d b5 00 00 	lea    r8,[rip+0xb52d]        # e300 <__func__.4>
    2dd3:	b9 1a 00 00 00       	mov    ecx,0x1a
    2dd8:	48 8d 15 65 b2 00 00 	lea    rdx,[rip+0xb265]        # e044 <_IO_stdin_used+0x44>
    2ddf:	48 8d 35 6a b2 00 00 	lea    rsi,[rip+0xb26a]        # e050 <_IO_stdin_used+0x50>
    2de6:	48 89 c7             	mov    rdi,rax
    2de9:	b8 00 00 00 00       	mov    eax,0x0
    2dee:	e8 6d f6 ff ff       	call   2460 <fprintf@plt>
    2df3:	bf 00 00 00 00       	mov    edi,0x0
    2df8:	e8 23 f7 ff ff       	call   2520 <exit@plt>
    2dfd:	8b 05 9d e2 00 00    	mov    eax,DWORD PTR [rip+0xe29d]        # 110a0 <k_DEFAULT@@Base>
    2e03:	48 98                	cdqe   
    2e05:	48 8d 14 c5 00 00 00 	lea    rdx,[rax*8+0x0]
    2e0c:	00 
    2e0d:	48 8d 05 ac e2 00 00 	lea    rax,[rip+0xe2ac]        # 110c0 <colors_f@@Base>
    2e14:	48 8b 34 02          	mov    rsi,QWORD PTR [rdx+rax*1]
    2e18:	8b 05 62 e2 00 00    	mov    eax,DWORD PTR [rip+0xe262]        # 11080 <hk_TR@@Base>
    2e1e:	48 98                	cdqe   
    2e20:	48 8d 14 c5 00 00 00 	lea    rdx,[rax*8+0x0]
    2e27:	00 
    2e28:	48 8d 05 11 e2 00 00 	lea    rax,[rip+0xe211]        # 11040 <tab_hk_f@@Base>
    2e2f:	48 8b 0c 02          	mov    rcx,QWORD PTR [rdx+rax*1]
    2e33:	8b 05 4b e2 00 00    	mov    eax,DWORD PTR [rip+0xe24b]        # 11084 <k_RED@@Base>
    2e39:	48 98                	cdqe   
    2e3b:	48 8d 14 c5 00 00 00 	lea    rdx,[rax*8+0x0]
    2e42:	00 
    2e43:	48 8d 05 76 e2 00 00 	lea    rax,[rip+0xe276]        # 110c0 <colors_f@@Base>
    2e4a:	48 8b 14 02          	mov    rdx,QWORD PTR [rdx+rax*1]
    2e4e:	48 8b 45 b8          	mov    rax,QWORD PTR [rbp-0x48]
    2e52:	4c 8d 0d a7 b4 00 00 	lea    r9,[rip+0xb4a7]        # e300 <__func__.4>
    2e59:	49 89 f0             	mov    r8,rsi
    2e5c:	48 8d 35 a5 b2 00 00 	lea    rsi,[rip+0xb2a5]        # e108 <_IO_stdin_used+0x108>
    2e63:	48 89 c7             	mov    rdi,rax
    2e66:	b8 00 00 00 00       	mov    eax,0x0
    2e6b:	e8 f0 f5 ff ff       	call   2460 <fprintf@plt>
    2e70:	48 8b 45 b8          	mov    rax,QWORD PTR [rbp-0x48]
    2e74:	48 89 c7             	mov    rdi,rax
    2e77:	e8 14 f6 ff ff       	call   2490 <fflush@plt>
    2e7c:	0f b6 05 0d e2 00 00 	movzx  eax,BYTE PTR [rip+0xe20d]        # 11090 <is_parallel_nb@@Base>
    2e83:	84 c0                	test   al,al
    2e85:	0f 84 e9 00 00 00    	je     2f74 <TEST_size_permutation____0+0x918>
    2e8b:	e8 c0 f5 ff ff       	call   2450 <id_of_thread_executed@plt>
    2e90:	48 89 45 c8          	mov    QWORD PTR [rbp-0x38],rax
    2e94:	0f b6 05 85 e1 00 00 	movzx  eax,BYTE PTR [rip+0xe185]        # 11020 <log_parallel@@Base>
    2e9b:	84 c0                	test   al,al
    2e9d:	74 6d                	je     2f0c <TEST_size_permutation____0+0x8b0>
    2e9f:	48 8b 85 30 ff ff ff 	mov    rax,QWORD PTR [rbp-0xd0]
    2ea6:	48 8b 15 7b e1 00 00 	mov    rdx,QWORD PTR [rip+0xe17b]        # 11028 <stdout@GLIBC_2.2.5>
    2ead:	48 89 d6             	mov    rsi,rdx
    2eb0:	48 89 c7             	mov    rdi,rax
    2eb3:	e8 28 f5 ff ff       	call   23e0 <fputs@plt>
    2eb8:	48 83 7d c8 00       	cmp    QWORD PTR [rbp-0x38],0x0
    2ebd:	0f 88 15 01 00 00    	js     2fd8 <TEST_size_permutation____0+0x97c>
    2ec3:	48 8b 85 30 ff ff ff 	mov    rax,QWORD PTR [rbp-0xd0]
    2eca:	48 8b 0d 5f e1 00 00 	mov    rcx,QWORD PTR [rip+0xe15f]        # 11030 <f_ou_th@@Base>
    2ed1:	48 8b 55 c8          	mov    rdx,QWORD PTR [rbp-0x38]
    2ed5:	48 c1 e2 03          	shl    rdx,0x3
    2ed9:	48 01 ca             	add    rdx,rcx
    2edc:	48 8b 12             	mov    rdx,QWORD PTR [rdx]
    2edf:	48 89 d6             	mov    rsi,rdx
    2ee2:	48 89 c7             	mov    rdi,rax
    2ee5:	e8 f6 f4 ff ff       	call   23e0 <fputs@plt>
    2eea:	48 8b 15 3f e1 00 00 	mov    rdx,QWORD PTR [rip+0xe13f]        # 11030 <f_ou_th@@Base>
    2ef1:	48 8b 45 c8          	mov    rax,QWORD PTR [rbp-0x38]
    2ef5:	48 c1 e0 03          	shl    rax,0x3
    2ef9:	48 01 d0             	add    rax,rdx
    2efc:	48 8b 00             	mov    rax,QWORD PTR [rax]
    2eff:	48 89 c7             	mov    rdi,rax
    2f02:	e8 89 f5 ff ff       	call   2490 <fflush@plt>
    2f07:	e9 cc 00 00 00       	jmp    2fd8 <TEST_size_permutation____0+0x97c>
    2f0c:	48 83 7d c8 00       	cmp    QWORD PTR [rbp-0x38],0x0
    2f11:	78 46                	js     2f59 <TEST_size_permutation____0+0x8fd>
    2f13:	48 8b 85 30 ff ff ff 	mov    rax,QWORD PTR [rbp-0xd0]
    2f1a:	48 8b 0d 0f e1 00 00 	mov    rcx,QWORD PTR [rip+0xe10f]        # 11030 <f_ou_th@@Base>
    2f21:	48 8b 55 c8          	mov    rdx,QWORD PTR [rbp-0x38]
    2f25:	48 c1 e2 03          	shl    rdx,0x3
    2f29:	48 01 ca             	add    rdx,rcx
    2f2c:	48 8b 12             	mov    rdx,QWORD PTR [rdx]
    2f2f:	48 89 d6             	mov    rsi,rdx
    2f32:	48 89 c7             	mov    rdi,rax
    2f35:	e8 a6 f4 ff ff       	call   23e0 <fputs@plt>
    2f3a:	48 8b 15 ef e0 00 00 	mov    rdx,QWORD PTR [rip+0xe0ef]        # 11030 <f_ou_th@@Base>
    2f41:	48 8b 45 c8          	mov    rax,QWORD PTR [rbp-0x38]
    2f45:	48 c1 e0 03          	shl    rax,0x3
    2f49:	48 01 d0             	add    rax,rdx
    2f4c:	48 8b 00             	mov    rax,QWORD PTR [rax]
    2f4f:	48 89 c7             	mov    rdi,rax
    2f52:	e8 39 f5 ff ff       	call   2490 <fflush@plt>
    2f57:	eb 7f                	jmp    2fd8 <TEST_size_permutation____0+0x97c>
    2f59:	48 8b 85 30 ff ff ff 	mov    rax,QWORD PTR [rbp-0xd0]
    2f60:	48 8b 15 c1 e0 00 00 	mov    rdx,QWORD PTR [rip+0xe0c1]        # 11028 <stdout@GLIBC_2.2.5>
    2f67:	48 89 d6             	mov    rsi,rdx
    2f6a:	48 89 c7             	mov    rdi,rax
    2f6d:	e8 6e f4 ff ff       	call   23e0 <fputs@plt>
    2f72:	eb 64                	jmp    2fd8 <TEST_size_permutation____0+0x97c>
    2f74:	48 8b 05 bd e0 00 00 	mov    rax,QWORD PTR [rip+0xe0bd]        # 11038 <savelog@@Base>
    2f7b:	48 85 c0             	test   rax,rax
    2f7e:	74 3f                	je     2fbf <TEST_size_permutation____0+0x963>
    2f80:	48 8b 05 b1 e0 00 00 	mov    rax,QWORD PTR [rip+0xe0b1]        # 11038 <savelog@@Base>
    2f87:	48 8d 15 f1 b0 00 00 	lea    rdx,[rip+0xb0f1]        # e07f <_IO_stdin_used+0x7f>
    2f8e:	48 89 d6             	mov    rsi,rdx
    2f91:	48 89 c7             	mov    rdi,rax
    2f94:	e8 67 f5 ff ff       	call   2500 <fopen@plt>
    2f99:	48 89 45 c0          	mov    QWORD PTR [rbp-0x40],rax
    2f9d:	48 8b 85 30 ff ff ff 	mov    rax,QWORD PTR [rbp-0xd0]
    2fa4:	48 8b 55 c0          	mov    rdx,QWORD PTR [rbp-0x40]
    2fa8:	48 89 d6             	mov    rsi,rdx
    2fab:	48 89 c7             	mov    rdi,rax
    2fae:	e8 2d f4 ff ff       	call   23e0 <fputs@plt>
    2fb3:	48 8b 45 c0          	mov    rax,QWORD PTR [rbp-0x40]
    2fb7:	48 89 c7             	mov    rdi,rax
    2fba:	e8 f1 f3 ff ff       	call   23b0 <fclose@plt>
    2fbf:	48 8b 85 30 ff ff ff 	mov    rax,QWORD PTR [rbp-0xd0]
    2fc6:	48 8b 15 5b e0 00 00 	mov    rdx,QWORD PTR [rip+0xe05b]        # 11028 <stdout@GLIBC_2.2.5>
    2fcd:	48 89 d6             	mov    rsi,rdx
    2fd0:	48 89 c7             	mov    rdi,rax
    2fd3:	e8 08 f4 ff ff       	call   23e0 <fputs@plt>
    2fd8:	48 8b 45 b8          	mov    rax,QWORD PTR [rbp-0x48]
    2fdc:	48 89 c7             	mov    rdi,rax
    2fdf:	e8 cc f3 ff ff       	call   23b0 <fclose@plt>
    2fe4:	48 8b 85 30 ff ff ff 	mov    rax,QWORD PTR [rbp-0xd0]
    2feb:	48 89 c7             	mov    rdi,rax
    2fee:	e8 3d f3 ff ff       	call   2330 <free@plt>
    2ff3:	e9 79 07 00 00       	jmp    3771 <TEST_size_permutation____0+0x1115>
    2ff8:	48 8b 85 38 ff ff ff 	mov    rax,QWORD PTR [rbp-0xc8]
    2fff:	48 8b 00             	mov    rax,QWORD PTR [rax]
    3002:	48 89 c1             	mov    rcx,rax
    3005:	48 8d 05 f4 b2 00 00 	lea    rax,[rip+0xb2f4]        # e300 <__func__.4>
    300c:	48 89 c2             	mov    rdx,rax
    300f:	be 03 00 00 00       	mov    esi,0x3
    3014:	48 89 cf             	mov    rdi,rcx
    3017:	e8 64 f3 ff ff       	call   2380 <expected_EQ_name_TYPE_L_INT@plt>
    301c:	84 c0                	test   al,al
    301e:	0f 84 57 02 00 00    	je     327b <TEST_size_permutation____0+0xc1f>
    3024:	48 8d 95 28 ff ff ff 	lea    rdx,[rbp-0xd8]
    302b:	48 8d 85 30 ff ff ff 	lea    rax,[rbp-0xd0]
    3032:	48 89 d6             	mov    rsi,rdx
    3035:	48 89 c7             	mov    rdi,rax
    3038:	e8 13 f3 ff ff       	call   2350 <open_memstream@plt>
    303d:	48 89 45 88          	mov    QWORD PTR [rbp-0x78],rax
    3041:	48 83 7d 88 00       	cmp    QWORD PTR [rbp-0x78],0x0
    3046:	75 38                	jne    3080 <TEST_size_permutation____0+0xa24>
    3048:	48 8b 05 b1 e0 00 00 	mov    rax,QWORD PTR [rip+0xe0b1]        # 11100 <stderr@GLIBC_2.2.5>
    304f:	4c 8d 05 aa b2 00 00 	lea    r8,[rip+0xb2aa]        # e300 <__func__.4>
    3056:	b9 1a 00 00 00       	mov    ecx,0x1a
    305b:	48 8d 15 e2 af 00 00 	lea    rdx,[rip+0xafe2]        # e044 <_IO_stdin_used+0x44>
    3062:	48 8d 35 e7 af 00 00 	lea    rsi,[rip+0xafe7]        # e050 <_IO_stdin_used+0x50>
    3069:	48 89 c7             	mov    rdi,rax
    306c:	b8 00 00 00 00       	mov    eax,0x0
    3071:	e8 ea f3 ff ff       	call   2460 <fprintf@plt>
    3076:	bf 00 00 00 00       	mov    edi,0x0
    307b:	e8 a0 f4 ff ff       	call   2520 <exit@plt>
    3080:	8b 05 1a e0 00 00    	mov    eax,DWORD PTR [rip+0xe01a]        # 110a0 <k_DEFAULT@@Base>
    3086:	48 98                	cdqe   
    3088:	48 8d 14 c5 00 00 00 	lea    rdx,[rax*8+0x0]
    308f:	00 
    3090:	48 8d 05 29 e0 00 00 	lea    rax,[rip+0xe029]        # 110c0 <colors_f@@Base>
    3097:	48 8b 34 02          	mov    rsi,QWORD PTR [rdx+rax*1]
    309b:	8b 05 df df 00 00    	mov    eax,DWORD PTR [rip+0xdfdf]        # 11080 <hk_TR@@Base>
    30a1:	48 98                	cdqe   
    30a3:	48 8d 14 c5 00 00 00 	lea    rdx,[rax*8+0x0]
    30aa:	00 
    30ab:	48 8d 05 8e df 00 00 	lea    rax,[rip+0xdf8e]        # 11040 <tab_hk_f@@Base>
    30b2:	48 8b 0c 02          	mov    rcx,QWORD PTR [rdx+rax*1]
    30b6:	8b 05 34 e0 00 00    	mov    eax,DWORD PTR [rip+0xe034]        # 110f0 <k_GREEN@@Base>
    30bc:	48 98                	cdqe   
    30be:	48 8d 14 c5 00 00 00 	lea    rdx,[rax*8+0x0]
    30c5:	00 
    30c6:	48 8d 05 f3 df 00 00 	lea    rax,[rip+0xdff3]        # 110c0 <colors_f@@Base>
    30cd:	48 8b 14 02          	mov    rdx,QWORD PTR [rdx+rax*1]
    30d1:	48 8b 45 88          	mov    rax,QWORD PTR [rbp-0x78]
    30d5:	4c 8d 0d 24 b2 00 00 	lea    r9,[rip+0xb224]        # e300 <__func__.4>
    30dc:	49 89 f0             	mov    r8,rsi
    30df:	48 8d 35 a2 af 00 00 	lea    rsi,[rip+0xafa2]        # e088 <_IO_stdin_used+0x88>
    30e6:	48 89 c7             	mov    rdi,rax
    30e9:	b8 00 00 00 00       	mov    eax,0x0
    30ee:	e8 6d f3 ff ff       	call   2460 <fprintf@plt>
    30f3:	48 8b 45 88          	mov    rax,QWORD PTR [rbp-0x78]
    30f7:	48 89 c7             	mov    rdi,rax
    30fa:	e8 91 f3 ff ff       	call   2490 <fflush@plt>
    30ff:	0f b6 05 8a df 00 00 	movzx  eax,BYTE PTR [rip+0xdf8a]        # 11090 <is_parallel_nb@@Base>
    3106:	84 c0                	test   al,al
    3108:	0f 84 e9 00 00 00    	je     31f7 <TEST_size_permutation____0+0xb9b>
    310e:	e8 3d f3 ff ff       	call   2450 <id_of_thread_executed@plt>
    3113:	48 89 45 98          	mov    QWORD PTR [rbp-0x68],rax
    3117:	0f b6 05 02 df 00 00 	movzx  eax,BYTE PTR [rip+0xdf02]        # 11020 <log_parallel@@Base>
    311e:	84 c0                	test   al,al
    3120:	74 6d                	je     318f <TEST_size_permutation____0+0xb33>
    3122:	48 8b 85 30 ff ff ff 	mov    rax,QWORD PTR [rbp-0xd0]
    3129:	48 8b 15 f8 de 00 00 	mov    rdx,QWORD PTR [rip+0xdef8]        # 11028 <stdout@GLIBC_2.2.5>
    3130:	48 89 d6             	mov    rsi,rdx
    3133:	48 89 c7             	mov    rdi,rax
    3136:	e8 a5 f2 ff ff       	call   23e0 <fputs@plt>
    313b:	48 83 7d 98 00       	cmp    QWORD PTR [rbp-0x68],0x0
    3140:	0f 88 15 01 00 00    	js     325b <TEST_size_permutation____0+0xbff>
    3146:	48 8b 85 30 ff ff ff 	mov    rax,QWORD PTR [rbp-0xd0]
    314d:	48 8b 0d dc de 00 00 	mov    rcx,QWORD PTR [rip+0xdedc]        # 11030 <f_ou_th@@Base>
    3154:	48 8b 55 98          	mov    rdx,QWORD PTR [rbp-0x68]
    3158:	48 c1 e2 03          	shl    rdx,0x3
    315c:	48 01 ca             	add    rdx,rcx
    315f:	48 8b 12             	mov    rdx,QWORD PTR [rdx]
    3162:	48 89 d6             	mov    rsi,rdx
    3165:	48 89 c7             	mov    rdi,rax
    3168:	e8 73 f2 ff ff       	call   23e0 <fputs@plt>
    316d:	48 8b 15 bc de 00 00 	mov    rdx,QWORD PTR [rip+0xdebc]        # 11030 <f_ou_th@@Base>
    3174:	48 8b 45 98          	mov    rax,QWORD PTR [rbp-0x68]
    3178:	48 c1 e0 03          	shl    rax,0x3
    317c:	48 01 d0             	add    rax,rdx
    317f:	48 8b 00             	mov    rax,QWORD PTR [rax]
    3182:	48 89 c7             	mov    rdi,rax
    3185:	e8 06 f3 ff ff       	call   2490 <fflush@plt>
    318a:	e9 cc 00 00 00       	jmp    325b <TEST_size_permutation____0+0xbff>
    318f:	48 83 7d 98 00       	cmp    QWORD PTR [rbp-0x68],0x0
    3194:	78 46                	js     31dc <TEST_size_permutation____0+0xb80>
    3196:	48 8b 85 30 ff ff ff 	mov    rax,QWORD PTR [rbp-0xd0]
    319d:	48 8b 0d 8c de 00 00 	mov    rcx,QWORD PTR [rip+0xde8c]        # 11030 <f_ou_th@@Base>
    31a4:	48 8b 55 98          	mov    rdx,QWORD PTR [rbp-0x68]
    31a8:	48 c1 e2 03          	shl    rdx,0x3
    31ac:	48 01 ca             	add    rdx,rcx
    31af:	48 8b 12             	mov    rdx,QWORD PTR [rdx]
    31b2:	48 89 d6             	mov    rsi,rdx
    31b5:	48 89 c7             	mov    rdi,rax
    31b8:	e8 23 f2 ff ff       	call   23e0 <fputs@plt>
    31bd:	48 8b 15 6c de 00 00 	mov    rdx,QWORD PTR [rip+0xde6c]        # 11030 <f_ou_th@@Base>
    31c4:	48 8b 45 98          	mov    rax,QWORD PTR [rbp-0x68]
    31c8:	48 c1 e0 03          	shl    rax,0x3
    31cc:	48 01 d0             	add    rax,rdx
    31cf:	48 8b 00             	mov    rax,QWORD PTR [rax]
    31d2:	48 89 c7             	mov    rdi,rax
    31d5:	e8 b6 f2 ff ff       	call   2490 <fflush@plt>
    31da:	eb 7f                	jmp    325b <TEST_size_permutation____0+0xbff>
    31dc:	48 8b 85 30 ff ff ff 	mov    rax,QWORD PTR [rbp-0xd0]
    31e3:	48 8b 15 3e de 00 00 	mov    rdx,QWORD PTR [rip+0xde3e]        # 11028 <stdout@GLIBC_2.2.5>
    31ea:	48 89 d6             	mov    rsi,rdx
    31ed:	48 89 c7             	mov    rdi,rax
    31f0:	e8 eb f1 ff ff       	call   23e0 <fputs@plt>
    31f5:	eb 64                	jmp    325b <TEST_size_permutation____0+0xbff>
    31f7:	48 8b 05 3a de 00 00 	mov    rax,QWORD PTR [rip+0xde3a]        # 11038 <savelog@@Base>
    31fe:	48 85 c0             	test   rax,rax
    3201:	74 3f                	je     3242 <TEST_size_permutation____0+0xbe6>
    3203:	48 8b 05 2e de 00 00 	mov    rax,QWORD PTR [rip+0xde2e]        # 11038 <savelog@@Base>
    320a:	48 8d 15 6e ae 00 00 	lea    rdx,[rip+0xae6e]        # e07f <_IO_stdin_used+0x7f>
    3211:	48 89 d6             	mov    rsi,rdx
    3214:	48 89 c7             	mov    rdi,rax
    3217:	e8 e4 f2 ff ff       	call   2500 <fopen@plt>
    321c:	48 89 45 90          	mov    QWORD PTR [rbp-0x70],rax
    3220:	48 8b 85 30 ff ff ff 	mov    rax,QWORD PTR [rbp-0xd0]
    3227:	48 8b 55 90          	mov    rdx,QWORD PTR [rbp-0x70]
    322b:	48 89 d6             	mov    rsi,rdx
    322e:	48 89 c7             	mov    rdi,rax
    3231:	e8 aa f1 ff ff       	call   23e0 <fputs@plt>
    3236:	48 8b 45 90          	mov    rax,QWORD PTR [rbp-0x70]
    323a:	48 89 c7             	mov    rdi,rax
    323d:	e8 6e f1 ff ff       	call   23b0 <fclose@plt>
    3242:	48 8b 85 30 ff ff ff 	mov    rax,QWORD PTR [rbp-0xd0]
    3249:	48 8b 15 d8 dd 00 00 	mov    rdx,QWORD PTR [rip+0xddd8]        # 11028 <stdout@GLIBC_2.2.5>
    3250:	48 89 d6             	mov    rsi,rdx
    3253:	48 89 c7             	mov    rdi,rax
    3256:	e8 85 f1 ff ff       	call   23e0 <fputs@plt>
    325b:	48 8b 45 88          	mov    rax,QWORD PTR [rbp-0x78]
    325f:	48 89 c7             	mov    rdi,rax
    3262:	e8 49 f1 ff ff       	call   23b0 <fclose@plt>
    3267:	48 8b 85 30 ff ff ff 	mov    rax,QWORD PTR [rbp-0xd0]
    326e:	48 89 c7             	mov    rdi,rax
    3271:	e8 ba f0 ff ff       	call   2330 <free@plt>
    3276:	e9 f6 04 00 00       	jmp    3771 <TEST_size_permutation____0+0x1115>
    327b:	48 8d 95 28 ff ff ff 	lea    rdx,[rbp-0xd8]
    3282:	48 8d 85 30 ff ff ff 	lea    rax,[rbp-0xd0]
    3289:	48 89 d6             	mov    rsi,rdx
    328c:	48 89 c7             	mov    rdi,rax
    328f:	e8 bc f0 ff ff       	call   2350 <open_memstream@plt>
    3294:	48 89 85 58 ff ff ff 	mov    QWORD PTR [rbp-0xa8],rax
    329b:	48 83 bd 58 ff ff ff 	cmp    QWORD PTR [rbp-0xa8],0x0
    32a2:	00 
    32a3:	75 38                	jne    32dd <TEST_size_permutation____0+0xc81>
    32a5:	48 8b 05 54 de 00 00 	mov    rax,QWORD PTR [rip+0xde54]        # 11100 <stderr@GLIBC_2.2.5>
    32ac:	4c 8d 05 4d b0 00 00 	lea    r8,[rip+0xb04d]        # e300 <__func__.4>
    32b3:	b9 1a 00 00 00       	mov    ecx,0x1a
    32b8:	48 8d 15 85 ad 00 00 	lea    rdx,[rip+0xad85]        # e044 <_IO_stdin_used+0x44>
    32bf:	48 8d 35 8a ad 00 00 	lea    rsi,[rip+0xad8a]        # e050 <_IO_stdin_used+0x50>
    32c6:	48 89 c7             	mov    rdi,rax
    32c9:	b8 00 00 00 00       	mov    eax,0x0
    32ce:	e8 8d f1 ff ff       	call   2460 <fprintf@plt>
    32d3:	bf 00 00 00 00       	mov    edi,0x0
    32d8:	e8 43 f2 ff ff       	call   2520 <exit@plt>
    32dd:	bf 03 00 00 00       	mov    edi,0x3
    32e2:	e8 49 f2 ff ff       	call   2530 <TYPE_L_INT_TO_STR@plt>
    32e7:	48 89 c3             	mov    rbx,rax
    32ea:	48 8b 85 38 ff ff ff 	mov    rax,QWORD PTR [rbp-0xc8]
    32f1:	48 8b 00             	mov    rax,QWORD PTR [rax]
    32f4:	48 89 c7             	mov    rdi,rax
    32f7:	e8 34 f2 ff ff       	call   2530 <TYPE_L_INT_TO_STR@plt>
    32fc:	48 89 c2             	mov    rdx,rax
    32ff:	48 8b 85 58 ff ff ff 	mov    rax,QWORD PTR [rbp-0xa8]
    3306:	53                   	push   rbx
    3307:	48 8d 0d f4 ad 00 00 	lea    rcx,[rip+0xadf4]        # e102 <_IO_stdin_used+0x102>
    330e:	51                   	push   rcx
    330f:	52                   	push   rdx
    3310:	48 8d 15 91 ad 00 00 	lea    rdx,[rip+0xad91]        # e0a8 <_IO_stdin_used+0xa8>
    3317:	52                   	push   rdx
    3318:	48 8d 15 e3 ad 00 00 	lea    rdx,[rip+0xade3]        # e102 <_IO_stdin_used+0x102>
    331f:	52                   	push   rdx
    3320:	48 8d 15 dd ad 00 00 	lea    rdx,[rip+0xaddd]        # e104 <_IO_stdin_used+0x104>
    3327:	52                   	push   rdx
    3328:	4c 8d 0d 79 ad 00 00 	lea    r9,[rip+0xad79]        # e0a8 <_IO_stdin_used+0xa8>
    332f:	4c 8d 05 ca af 00 00 	lea    r8,[rip+0xafca]        # e300 <__func__.4>
    3336:	b9 1a 00 00 00       	mov    ecx,0x1a
    333b:	48 8d 15 02 ad 00 00 	lea    rdx,[rip+0xad02]        # e044 <_IO_stdin_used+0x44>
    3342:	48 8d 35 67 ad 00 00 	lea    rsi,[rip+0xad67]        # e0b0 <_IO_stdin_used+0xb0>
    3349:	48 89 c7             	mov    rdi,rax
    334c:	b8 00 00 00 00       	mov    eax,0x0
    3351:	e8 0a f1 ff ff       	call   2460 <fprintf@plt>
    3356:	48 83 c4 30          	add    rsp,0x30
    335a:	48 8b 85 58 ff ff ff 	mov    rax,QWORD PTR [rbp-0xa8]
    3361:	48 89 c7             	mov    rdi,rax
    3364:	e8 27 f1 ff ff       	call   2490 <fflush@plt>
    3369:	0f b6 05 20 dd 00 00 	movzx  eax,BYTE PTR [rip+0xdd20]        # 11090 <is_parallel_nb@@Base>
    3370:	84 c0                	test   al,al
    3372:	0f 84 01 01 00 00    	je     3479 <TEST_size_permutation____0+0xe1d>
    3378:	e8 d3 f0 ff ff       	call   2450 <id_of_thread_executed@plt>
    337d:	48 89 85 68 ff ff ff 	mov    QWORD PTR [rbp-0x98],rax
    3384:	0f b6 05 95 dc 00 00 	movzx  eax,BYTE PTR [rip+0xdc95]        # 11020 <log_parallel@@Base>
    338b:	84 c0                	test   al,al
    338d:	74 76                	je     3405 <TEST_size_permutation____0+0xda9>
    338f:	48 8b 85 30 ff ff ff 	mov    rax,QWORD PTR [rbp-0xd0]
    3396:	48 8b 15 8b dc 00 00 	mov    rdx,QWORD PTR [rip+0xdc8b]        # 11028 <stdout@GLIBC_2.2.5>
    339d:	48 89 d6             	mov    rsi,rdx
    33a0:	48 89 c7             	mov    rdi,rax
    33a3:	e8 38 f0 ff ff       	call   23e0 <fputs@plt>
    33a8:	48 83 bd 68 ff ff ff 	cmp    QWORD PTR [rbp-0x98],0x0
    33af:	00 
    33b0:	0f 88 30 01 00 00    	js     34e6 <TEST_size_permutation____0+0xe8a>
    33b6:	48 8b 85 30 ff ff ff 	mov    rax,QWORD PTR [rbp-0xd0]
    33bd:	48 8b 0d 6c dc 00 00 	mov    rcx,QWORD PTR [rip+0xdc6c]        # 11030 <f_ou_th@@Base>
    33c4:	48 8b 95 68 ff ff ff 	mov    rdx,QWORD PTR [rbp-0x98]
    33cb:	48 c1 e2 03          	shl    rdx,0x3
    33cf:	48 01 ca             	add    rdx,rcx
    33d2:	48 8b 12             	mov    rdx,QWORD PTR [rdx]
    33d5:	48 89 d6             	mov    rsi,rdx
    33d8:	48 89 c7             	mov    rdi,rax
    33db:	e8 00 f0 ff ff       	call   23e0 <fputs@plt>
    33e0:	48 8b 15 49 dc 00 00 	mov    rdx,QWORD PTR [rip+0xdc49]        # 11030 <f_ou_th@@Base>
    33e7:	48 8b 85 68 ff ff ff 	mov    rax,QWORD PTR [rbp-0x98]
    33ee:	48 c1 e0 03          	shl    rax,0x3
    33f2:	48 01 d0             	add    rax,rdx
    33f5:	48 8b 00             	mov    rax,QWORD PTR [rax]
    33f8:	48 89 c7             	mov    rdi,rax
    33fb:	e8 90 f0 ff ff       	call   2490 <fflush@plt>
    3400:	e9 e1 00 00 00       	jmp    34e6 <TEST_size_permutation____0+0xe8a>
    3405:	48 83 bd 68 ff ff ff 	cmp    QWORD PTR [rbp-0x98],0x0
    340c:	00 
    340d:	78 4f                	js     345e <TEST_size_permutation____0+0xe02>
    340f:	48 8b 85 30 ff ff ff 	mov    rax,QWORD PTR [rbp-0xd0]
    3416:	48 8b 0d 13 dc 00 00 	mov    rcx,QWORD PTR [rip+0xdc13]        # 11030 <f_ou_th@@Base>
    341d:	48 8b 95 68 ff ff ff 	mov    rdx,QWORD PTR [rbp-0x98]
    3424:	48 c1 e2 03          	shl    rdx,0x3
    3428:	48 01 ca             	add    rdx,rcx
    342b:	48 8b 12             	mov    rdx,QWORD PTR [rdx]
    342e:	48 89 d6             	mov    rsi,rdx
    3431:	48 89 c7             	mov    rdi,rax
    3434:	e8 a7 ef ff ff       	call   23e0 <fputs@plt>
    3439:	48 8b 15 f0 db 00 00 	mov    rdx,QWORD PTR [rip+0xdbf0]        # 11030 <f_ou_th@@Base>
    3440:	48 8b 85 68 ff ff ff 	mov    rax,QWORD PTR [rbp-0x98]
    3447:	48 c1 e0 03          	shl    rax,0x3
    344b:	48 01 d0             	add    rax,rdx
    344e:	48 8b 00             	mov    rax,QWORD PTR [rax]
    3451:	48 89 c7             	mov    rdi,rax
    3454:	e8 37 f0 ff ff       	call   2490 <fflush@plt>
    3459:	e9 88 00 00 00       	jmp    34e6 <TEST_size_permutation____0+0xe8a>
    345e:	48 8b 85 30 ff ff ff 	mov    rax,QWORD PTR [rbp-0xd0]
    3465:	48 8b 15 bc db 00 00 	mov    rdx,QWORD PTR [rip+0xdbbc]        # 11028 <stdout@GLIBC_2.2.5>
    346c:	48 89 d6             	mov    rsi,rdx
    346f:	48 89 c7             	mov    rdi,rax
    3472:	e8 69 ef ff ff       	call   23e0 <fputs@plt>
    3477:	eb 6d                	jmp    34e6 <TEST_size_permutation____0+0xe8a>
    3479:	48 8b 05 b8 db 00 00 	mov    rax,QWORD PTR [rip+0xdbb8]        # 11038 <savelog@@Base>
    3480:	48 85 c0             	test   rax,rax
    3483:	74 48                	je     34cd <TEST_size_permutation____0+0xe71>
    3485:	48 8b 05 ac db 00 00 	mov    rax,QWORD PTR [rip+0xdbac]        # 11038 <savelog@@Base>
    348c:	48 8d 15 ec ab 00 00 	lea    rdx,[rip+0xabec]        # e07f <_IO_stdin_used+0x7f>
    3493:	48 89 d6             	mov    rsi,rdx
    3496:	48 89 c7             	mov    rdi,rax
    3499:	e8 62 f0 ff ff       	call   2500 <fopen@plt>
    349e:	48 89 85 60 ff ff ff 	mov    QWORD PTR [rbp-0xa0],rax
    34a5:	48 8b 85 30 ff ff ff 	mov    rax,QWORD PTR [rbp-0xd0]
    34ac:	48 8b 95 60 ff ff ff 	mov    rdx,QWORD PTR [rbp-0xa0]
    34b3:	48 89 d6             	mov    rsi,rdx
    34b6:	48 89 c7             	mov    rdi,rax
    34b9:	e8 22 ef ff ff       	call   23e0 <fputs@plt>
    34be:	48 8b 85 60 ff ff ff 	mov    rax,QWORD PTR [rbp-0xa0]
    34c5:	48 89 c7             	mov    rdi,rax
    34c8:	e8 e3 ee ff ff       	call   23b0 <fclose@plt>
    34cd:	48 8b 85 30 ff ff ff 	mov    rax,QWORD PTR [rbp-0xd0]
    34d4:	48 8b 15 4d db 00 00 	mov    rdx,QWORD PTR [rip+0xdb4d]        # 11028 <stdout@GLIBC_2.2.5>
    34db:	48 89 d6             	mov    rsi,rdx
    34de:	48 89 c7             	mov    rdi,rax
    34e1:	e8 fa ee ff ff       	call   23e0 <fputs@plt>
    34e6:	48 8b 85 58 ff ff ff 	mov    rax,QWORD PTR [rbp-0xa8]
    34ed:	48 89 c7             	mov    rdi,rax
    34f0:	e8 bb ee ff ff       	call   23b0 <fclose@plt>
    34f5:	48 8b 85 30 ff ff ff 	mov    rax,QWORD PTR [rbp-0xd0]
    34fc:	48 89 c7             	mov    rdi,rax
    34ff:	e8 2c ee ff ff       	call   2330 <free@plt>
    3504:	48 8d 95 28 ff ff ff 	lea    rdx,[rbp-0xd8]
    350b:	48 8d 85 30 ff ff ff 	lea    rax,[rbp-0xd0]
    3512:	48 89 d6             	mov    rsi,rdx
    3515:	48 89 c7             	mov    rdi,rax
    3518:	e8 33 ee ff ff       	call   2350 <open_memstream@plt>
    351d:	48 89 85 70 ff ff ff 	mov    QWORD PTR [rbp-0x90],rax
    3524:	48 83 bd 70 ff ff ff 	cmp    QWORD PTR [rbp-0x90],0x0
    352b:	00 
    352c:	75 38                	jne    3566 <TEST_size_permutation____0+0xf0a>
    352e:	48 8b 05 cb db 00 00 	mov    rax,QWORD PTR [rip+0xdbcb]        # 11100 <stderr@GLIBC_2.2.5>
    3535:	4c 8d 05 c4 ad 00 00 	lea    r8,[rip+0xadc4]        # e300 <__func__.4>
    353c:	b9 1a 00 00 00       	mov    ecx,0x1a
    3541:	48 8d 15 fc aa 00 00 	lea    rdx,[rip+0xaafc]        # e044 <_IO_stdin_used+0x44>
    3548:	48 8d 35 01 ab 00 00 	lea    rsi,[rip+0xab01]        # e050 <_IO_stdin_used+0x50>
    354f:	48 89 c7             	mov    rdi,rax
    3552:	b8 00 00 00 00       	mov    eax,0x0
    3557:	e8 04 ef ff ff       	call   2460 <fprintf@plt>
    355c:	bf 00 00 00 00       	mov    edi,0x0
    3561:	e8 ba ef ff ff       	call   2520 <exit@plt>
    3566:	8b 05 34 db 00 00    	mov    eax,DWORD PTR [rip+0xdb34]        # 110a0 <k_DEFAULT@@Base>
    356c:	48 98                	cdqe   
    356e:	48 8d 14 c5 00 00 00 	lea    rdx,[rax*8+0x0]
    3575:	00 
    3576:	48 8d 05 43 db 00 00 	lea    rax,[rip+0xdb43]        # 110c0 <colors_f@@Base>
    357d:	48 8b 34 02          	mov    rsi,QWORD PTR [rdx+rax*1]
    3581:	8b 05 f9 da 00 00    	mov    eax,DWORD PTR [rip+0xdaf9]        # 11080 <hk_TR@@Base>
    3587:	48 98                	cdqe   
    3589:	48 8d 14 c5 00 00 00 	lea    rdx,[rax*8+0x0]
    3590:	00 
    3591:	48 8d 05 a8 da 00 00 	lea    rax,[rip+0xdaa8]        # 11040 <tab_hk_f@@Base>
    3598:	48 8b 0c 02          	mov    rcx,QWORD PTR [rdx+rax*1]
    359c:	8b 05 e2 da 00 00    	mov    eax,DWORD PTR [rip+0xdae2]        # 11084 <k_RED@@Base>
    35a2:	48 98                	cdqe   
    35a4:	48 8d 14 c5 00 00 00 	lea    rdx,[rax*8+0x0]
    35ab:	00 
    35ac:	48 8d 05 0d db 00 00 	lea    rax,[rip+0xdb0d]        # 110c0 <colors_f@@Base>
    35b3:	48 8b 14 02          	mov    rdx,QWORD PTR [rdx+rax*1]
    35b7:	48 8b 85 70 ff ff ff 	mov    rax,QWORD PTR [rbp-0x90]
    35be:	4c 8d 0d 3b ad 00 00 	lea    r9,[rip+0xad3b]        # e300 <__func__.4>
    35c5:	49 89 f0             	mov    r8,rsi
    35c8:	48 8d 35 39 ab 00 00 	lea    rsi,[rip+0xab39]        # e108 <_IO_stdin_used+0x108>
    35cf:	48 89 c7             	mov    rdi,rax
    35d2:	b8 00 00 00 00       	mov    eax,0x0
    35d7:	e8 84 ee ff ff       	call   2460 <fprintf@plt>
    35dc:	48 8b 85 70 ff ff ff 	mov    rax,QWORD PTR [rbp-0x90]
    35e3:	48 89 c7             	mov    rdi,rax
    35e6:	e8 a5 ee ff ff       	call   2490 <fflush@plt>
    35eb:	0f b6 05 9e da 00 00 	movzx  eax,BYTE PTR [rip+0xda9e]        # 11090 <is_parallel_nb@@Base>
    35f2:	84 c0                	test   al,al
    35f4:	0f 84 ec 00 00 00    	je     36e6 <TEST_size_permutation____0+0x108a>
    35fa:	e8 51 ee ff ff       	call   2450 <id_of_thread_executed@plt>
    35ff:	48 89 45 80          	mov    QWORD PTR [rbp-0x80],rax
    3603:	0f b6 05 16 da 00 00 	movzx  eax,BYTE PTR [rip+0xda16]        # 11020 <log_parallel@@Base>
    360a:	84 c0                	test   al,al
    360c:	74 6d                	je     367b <TEST_size_permutation____0+0x101f>
    360e:	48 8b 85 30 ff ff ff 	mov    rax,QWORD PTR [rbp-0xd0]
    3615:	48 8b 15 0c da 00 00 	mov    rdx,QWORD PTR [rip+0xda0c]        # 11028 <stdout@GLIBC_2.2.5>
    361c:	48 89 d6             	mov    rsi,rdx
    361f:	48 89 c7             	mov    rdi,rax
    3622:	e8 b9 ed ff ff       	call   23e0 <fputs@plt>
    3627:	48 83 7d 80 00       	cmp    QWORD PTR [rbp-0x80],0x0
    362c:	0f 88 21 01 00 00    	js     3753 <TEST_size_permutation____0+0x10f7>
    3632:	48 8b 85 30 ff ff ff 	mov    rax,QWORD PTR [rbp-0xd0]
    3639:	48 8b 0d f0 d9 00 00 	mov    rcx,QWORD PTR [rip+0xd9f0]        # 11030 <f_ou_th@@Base>
    3640:	48 8b 55 80          	mov    rdx,QWORD PTR [rbp-0x80]
    3644:	48 c1 e2 03          	shl    rdx,0x3
    3648:	48 01 ca             	add    rdx,rcx
    364b:	48 8b 12             	mov    rdx,QWORD PTR [rdx]
    364e:	48 89 d6             	mov    rsi,rdx
    3651:	48 89 c7             	mov    rdi,rax
    3654:	e8 87 ed ff ff       	call   23e0 <fputs@plt>
    3659:	48 8b 15 d0 d9 00 00 	mov    rdx,QWORD PTR [rip+0xd9d0]        # 11030 <f_ou_th@@Base>
    3660:	48 8b 45 80          	mov    rax,QWORD PTR [rbp-0x80]
    3664:	48 c1 e0 03          	shl    rax,0x3
    3668:	48 01 d0             	add    rax,rdx
    366b:	48 8b 00             	mov    rax,QWORD PTR [rax]
    366e:	48 89 c7             	mov    rdi,rax
    3671:	e8 1a ee ff ff       	call   2490 <fflush@plt>
    3676:	e9 d8 00 00 00       	jmp    3753 <TEST_size_permutation____0+0x10f7>
    367b:	48 83 7d 80 00       	cmp    QWORD PTR [rbp-0x80],0x0
    3680:	78 49                	js     36cb <TEST_size_permutation____0+0x106f>
    3682:	48 8b 85 30 ff ff ff 	mov    rax,QWORD PTR [rbp-0xd0]
    3689:	48 8b 0d a0 d9 00 00 	mov    rcx,QWORD PTR [rip+0xd9a0]        # 11030 <f_ou_th@@Base>
    3690:	48 8b 55 80          	mov    rdx,QWORD PTR [rbp-0x80]
    3694:	48 c1 e2 03          	shl    rdx,0x3
    3698:	48 01 ca             	add    rdx,rcx
    369b:	48 8b 12             	mov    rdx,QWORD PTR [rdx]
    369e:	48 89 d6             	mov    rsi,rdx
    36a1:	48 89 c7             	mov    rdi,rax
    36a4:	e8 37 ed ff ff       	call   23e0 <fputs@plt>
    36a9:	48 8b 15 80 d9 00 00 	mov    rdx,QWORD PTR [rip+0xd980]        # 11030 <f_ou_th@@Base>
    36b0:	48 8b 45 80          	mov    rax,QWORD PTR [rbp-0x80]
    36b4:	48 c1 e0 03          	shl    rax,0x3
    36b8:	48 01 d0             	add    rax,rdx
    36bb:	48 8b 00             	mov    rax,QWORD PTR [rax]
    36be:	48 89 c7             	mov    rdi,rax
    36c1:	e8 ca ed ff ff       	call   2490 <fflush@plt>
    36c6:	e9 88 00 00 00       	jmp    3753 <TEST_size_permutation____0+0x10f7>
    36cb:	48 8b 85 30 ff ff ff 	mov    rax,QWORD PTR [rbp-0xd0]
    36d2:	48 8b 15 4f d9 00 00 	mov    rdx,QWORD PTR [rip+0xd94f]        # 11028 <stdout@GLIBC_2.2.5>
    36d9:	48 89 d6             	mov    rsi,rdx
    36dc:	48 89 c7             	mov    rdi,rax
    36df:	e8 fc ec ff ff       	call   23e0 <fputs@plt>
    36e4:	eb 6d                	jmp    3753 <TEST_size_permutation____0+0x10f7>
    36e6:	48 8b 05 4b d9 00 00 	mov    rax,QWORD PTR [rip+0xd94b]        # 11038 <savelog@@Base>
    36ed:	48 85 c0             	test   rax,rax
    36f0:	74 48                	je     373a <TEST_size_permutation____0+0x10de>
    36f2:	48 8b 05 3f d9 00 00 	mov    rax,QWORD PTR [rip+0xd93f]        # 11038 <savelog@@Base>
    36f9:	48 8d 15 7f a9 00 00 	lea    rdx,[rip+0xa97f]        # e07f <_IO_stdin_used+0x7f>
    3700:	48 89 d6             	mov    rsi,rdx
    3703:	48 89 c7             	mov    rdi,rax
    3706:	e8 f5 ed ff ff       	call   2500 <fopen@plt>
    370b:	48 89 85 78 ff ff ff 	mov    QWORD PTR [rbp-0x88],rax
    3712:	48 8b 85 30 ff ff ff 	mov    rax,QWORD PTR [rbp-0xd0]
    3719:	48 8b 95 78 ff ff ff 	mov    rdx,QWORD PTR [rbp-0x88]
    3720:	48 89 d6             	mov    rsi,rdx
    3723:	48 89 c7             	mov    rdi,rax
    3726:	e8 b5 ec ff ff       	call   23e0 <fputs@plt>
    372b:	48 8b 85 78 ff ff ff 	mov    rax,QWORD PTR [rbp-0x88]
    3732:	48 89 c7             	mov    rdi,rax
    3735:	e8 76 ec ff ff       	call   23b0 <fclose@plt>
    373a:	48 8b 85 30 ff ff ff 	mov    rax,QWORD PTR [rbp-0xd0]
    3741:	48 8b 15 e0 d8 00 00 	mov    rdx,QWORD PTR [rip+0xd8e0]        # 11028 <stdout@GLIBC_2.2.5>
    3748:	48 89 d6             	mov    rsi,rdx
    374b:	48 89 c7             	mov    rdi,rax
    374e:	e8 8d ec ff ff       	call   23e0 <fputs@plt>
    3753:	48 8b 85 70 ff ff ff 	mov    rax,QWORD PTR [rbp-0x90]
    375a:	48 89 c7             	mov    rdi,rax
    375d:	e8 4e ec ff ff       	call   23b0 <fclose@plt>
    3762:	48 8b 85 30 ff ff ff 	mov    rax,QWORD PTR [rbp-0xd0]
    3769:	48 89 c7             	mov    rdi,rax
    376c:	e8 bf eb ff ff       	call   2330 <free@plt>
    3771:	90                   	nop
    3772:	48 8b 45 e8          	mov    rax,QWORD PTR [rbp-0x18]
    3776:	64 48 2b 04 25 28 00 	sub    rax,QWORD PTR fs:0x28
    377d:	00 00 
    377f:	74 05                	je     3786 <TEST_size_permutation____0+0x112a>
    3781:	e8 3a ec ff ff       	call   23c0 <__stack_chk_fail@plt>
    3786:	48 8b 5d f8          	mov    rbx,QWORD PTR [rbp-0x8]
    378a:	c9                   	leave  
    378b:	c3                   	ret    

000000000000378c <append_test_permutation_t_float_trans1>:
    378c:	f3 0f 1e fa          	endbr64 
    3790:	55                   	push   rbp
    3791:	48 89 e5             	mov    rbp,rsp
    3794:	48 8d 05 8d a9 00 00 	lea    rax,[rip+0xa98d]        # e128 <_IO_stdin_used+0x128>
    379b:	48 89 c6             	mov    rsi,rax
    379e:	48 8d 05 0a 00 00 00 	lea    rax,[rip+0xa]        # 37af <TEST_permutation_t_float_trans____1>
    37a5:	48 89 c7             	mov    rdi,rax
    37a8:	e8 93 eb ff ff       	call   2340 <append_func@plt>
    37ad:	5d                   	pop    rbp
    37ae:	c3                   	ret    

00000000000037af <TEST_permutation_t_float_trans____1>:
    37af:	f3 0f 1e fa          	endbr64 
    37b3:	55                   	push   rbp
    37b4:	48 89 e5             	mov    rbp,rsp
    37b7:	53                   	push   rbx
    37b8:	48 81 ec 18 02 00 00 	sub    rsp,0x218
    37bf:	64 48 8b 04 25 28 00 	mov    rax,QWORD PTR fs:0x28
    37c6:	00 00 
    37c8:	48 89 45 e8          	mov    QWORD PTR [rbp-0x18],rax
    37cc:	31 c0                	xor    eax,eax
    37ce:	c7 85 ec fd ff ff 06 	mov    DWORD PTR [rbp-0x214],0x6
    37d5:	00 00 00 
    37d8:	8b 85 ec fd ff ff    	mov    eax,DWORD PTR [rbp-0x214]
    37de:	48 98                	cdqe   
    37e0:	48 89 c7             	mov    rdi,rax
    37e3:	e8 29 8b 00 00       	call   c311 <CREATE_PERMUTATION_TYPE_FLOAT>
    37e8:	48 89 85 08 fe ff ff 	mov    QWORD PTR [rbp-0x1f8],rax
    37ef:	48 8d 95 f0 fd ff ff 	lea    rdx,[rbp-0x210]
    37f6:	48 8d 85 f8 fd ff ff 	lea    rax,[rbp-0x208]
    37fd:	48 89 d6             	mov    rsi,rdx
    3800:	48 89 c7             	mov    rdi,rax
    3803:	e8 48 eb ff ff       	call   2350 <open_memstream@plt>
    3808:	48 89 85 10 fe ff ff 	mov    QWORD PTR [rbp-0x1f0],rax
    380f:	48 83 bd 10 fe ff ff 	cmp    QWORD PTR [rbp-0x1f0],0x0
    3816:	00 
    3817:	75 38                	jne    3851 <TEST_permutation_t_float_trans____1+0xa2>
    3819:	48 8b 05 e0 d8 00 00 	mov    rax,QWORD PTR [rip+0xd8e0]        # 11100 <stderr@GLIBC_2.2.5>
    3820:	4c 8d 05 f9 aa 00 00 	lea    r8,[rip+0xaaf9]        # e320 <__func__.3>
    3827:	b9 24 00 00 00       	mov    ecx,0x24
    382c:	48 8d 15 11 a8 00 00 	lea    rdx,[rip+0xa811]        # e044 <_IO_stdin_used+0x44>
    3833:	48 8d 35 16 a8 00 00 	lea    rsi,[rip+0xa816]        # e050 <_IO_stdin_used+0x50>
    383a:	48 89 c7             	mov    rdi,rax
    383d:	b8 00 00 00 00       	mov    eax,0x0
    3842:	e8 19 ec ff ff       	call   2460 <fprintf@plt>
    3847:	bf 00 00 00 00       	mov    edi,0x0
    384c:	e8 cf ec ff ff       	call   2520 <exit@plt>
    3851:	48 8b 85 08 fe ff ff 	mov    rax,QWORD PTR [rbp-0x1f8]
    3858:	48 8b 10             	mov    rdx,QWORD PTR [rax]
    385b:	48 8b 85 10 fe ff ff 	mov    rax,QWORD PTR [rbp-0x1f0]
    3862:	48 8d 0d 08 a8 00 00 	lea    rcx,[rip+0xa808]        # e071 <_IO_stdin_used+0x71>
    3869:	48 89 ce             	mov    rsi,rcx
    386c:	48 89 c7             	mov    rdi,rax
    386f:	b8 00 00 00 00       	mov    eax,0x0
    3874:	e8 e7 eb ff ff       	call   2460 <fprintf@plt>
    3879:	48 8b 85 10 fe ff ff 	mov    rax,QWORD PTR [rbp-0x1f0]
    3880:	48 89 c7             	mov    rdi,rax
    3883:	e8 08 ec ff ff       	call   2490 <fflush@plt>
    3888:	0f b6 05 01 d8 00 00 	movzx  eax,BYTE PTR [rip+0xd801]        # 11090 <is_parallel_nb@@Base>
    388f:	84 c0                	test   al,al
    3891:	0f 84 01 01 00 00    	je     3998 <TEST_permutation_t_float_trans____1+0x1e9>
    3897:	e8 b4 eb ff ff       	call   2450 <id_of_thread_executed@plt>
    389c:	48 89 85 20 fe ff ff 	mov    QWORD PTR [rbp-0x1e0],rax
    38a3:	0f b6 05 76 d7 00 00 	movzx  eax,BYTE PTR [rip+0xd776]        # 11020 <log_parallel@@Base>
    38aa:	84 c0                	test   al,al
    38ac:	74 76                	je     3924 <TEST_permutation_t_float_trans____1+0x175>
    38ae:	48 8b 85 f8 fd ff ff 	mov    rax,QWORD PTR [rbp-0x208]
    38b5:	48 8b 15 6c d7 00 00 	mov    rdx,QWORD PTR [rip+0xd76c]        # 11028 <stdout@GLIBC_2.2.5>
    38bc:	48 89 d6             	mov    rsi,rdx
    38bf:	48 89 c7             	mov    rdi,rax
    38c2:	e8 19 eb ff ff       	call   23e0 <fputs@plt>
    38c7:	48 83 bd 20 fe ff ff 	cmp    QWORD PTR [rbp-0x1e0],0x0
    38ce:	00 
    38cf:	0f 88 30 01 00 00    	js     3a05 <TEST_permutation_t_float_trans____1+0x256>
    38d5:	48 8b 85 f8 fd ff ff 	mov    rax,QWORD PTR [rbp-0x208]
    38dc:	48 8b 0d 4d d7 00 00 	mov    rcx,QWORD PTR [rip+0xd74d]        # 11030 <f_ou_th@@Base>
    38e3:	48 8b 95 20 fe ff ff 	mov    rdx,QWORD PTR [rbp-0x1e0]
    38ea:	48 c1 e2 03          	shl    rdx,0x3
    38ee:	48 01 ca             	add    rdx,rcx
    38f1:	48 8b 12             	mov    rdx,QWORD PTR [rdx]
    38f4:	48 89 d6             	mov    rsi,rdx
    38f7:	48 89 c7             	mov    rdi,rax
    38fa:	e8 e1 ea ff ff       	call   23e0 <fputs@plt>
    38ff:	48 8b 15 2a d7 00 00 	mov    rdx,QWORD PTR [rip+0xd72a]        # 11030 <f_ou_th@@Base>
    3906:	48 8b 85 20 fe ff ff 	mov    rax,QWORD PTR [rbp-0x1e0]
    390d:	48 c1 e0 03          	shl    rax,0x3
    3911:	48 01 d0             	add    rax,rdx
    3914:	48 8b 00             	mov    rax,QWORD PTR [rax]
    3917:	48 89 c7             	mov    rdi,rax
    391a:	e8 71 eb ff ff       	call   2490 <fflush@plt>
    391f:	e9 e1 00 00 00       	jmp    3a05 <TEST_permutation_t_float_trans____1+0x256>
    3924:	48 83 bd 20 fe ff ff 	cmp    QWORD PTR [rbp-0x1e0],0x0
    392b:	00 
    392c:	78 4f                	js     397d <TEST_permutation_t_float_trans____1+0x1ce>
    392e:	48 8b 85 f8 fd ff ff 	mov    rax,QWORD PTR [rbp-0x208]
    3935:	48 8b 0d f4 d6 00 00 	mov    rcx,QWORD PTR [rip+0xd6f4]        # 11030 <f_ou_th@@Base>
    393c:	48 8b 95 20 fe ff ff 	mov    rdx,QWORD PTR [rbp-0x1e0]
    3943:	48 c1 e2 03          	shl    rdx,0x3
    3947:	48 01 ca             	add    rdx,rcx
    394a:	48 8b 12             	mov    rdx,QWORD PTR [rdx]
    394d:	48 89 d6             	mov    rsi,rdx
    3950:	48 89 c7             	mov    rdi,rax
    3953:	e8 88 ea ff ff       	call   23e0 <fputs@plt>
    3958:	48 8b 15 d1 d6 00 00 	mov    rdx,QWORD PTR [rip+0xd6d1]        # 11030 <f_ou_th@@Base>
    395f:	48 8b 85 20 fe ff ff 	mov    rax,QWORD PTR [rbp-0x1e0]
    3966:	48 c1 e0 03          	shl    rax,0x3
    396a:	48 01 d0             	add    rax,rdx
    396d:	48 8b 00             	mov    rax,QWORD PTR [rax]
    3970:	48 89 c7             	mov    rdi,rax
    3973:	e8 18 eb ff ff       	call   2490 <fflush@plt>
    3978:	e9 88 00 00 00       	jmp    3a05 <TEST_permutation_t_float_trans____1+0x256>
    397d:	48 8b 85 f8 fd ff ff 	mov    rax,QWORD PTR [rbp-0x208]
    3984:	48 8b 15 9d d6 00 00 	mov    rdx,QWORD PTR [rip+0xd69d]        # 11028 <stdout@GLIBC_2.2.5>
    398b:	48 89 d6             	mov    rsi,rdx
    398e:	48 89 c7             	mov    rdi,rax
    3991:	e8 4a ea ff ff       	call   23e0 <fputs@plt>
    3996:	eb 6d                	jmp    3a05 <TEST_permutation_t_float_trans____1+0x256>
    3998:	48 8b 05 99 d6 00 00 	mov    rax,QWORD PTR [rip+0xd699]        # 11038 <savelog@@Base>
    399f:	48 85 c0             	test   rax,rax
    39a2:	74 48                	je     39ec <TEST_permutation_t_float_trans____1+0x23d>
    39a4:	48 8b 05 8d d6 00 00 	mov    rax,QWORD PTR [rip+0xd68d]        # 11038 <savelog@@Base>
    39ab:	48 8d 15 cd a6 00 00 	lea    rdx,[rip+0xa6cd]        # e07f <_IO_stdin_used+0x7f>
    39b2:	48 89 d6             	mov    rsi,rdx
    39b5:	48 89 c7             	mov    rdi,rax
    39b8:	e8 43 eb ff ff       	call   2500 <fopen@plt>
    39bd:	48 89 85 18 fe ff ff 	mov    QWORD PTR [rbp-0x1e8],rax
    39c4:	48 8b 85 f8 fd ff ff 	mov    rax,QWORD PTR [rbp-0x208]
    39cb:	48 8b 95 18 fe ff ff 	mov    rdx,QWORD PTR [rbp-0x1e8]
    39d2:	48 89 d6             	mov    rsi,rdx
    39d5:	48 89 c7             	mov    rdi,rax
    39d8:	e8 03 ea ff ff       	call   23e0 <fputs@plt>
    39dd:	48 8b 85 18 fe ff ff 	mov    rax,QWORD PTR [rbp-0x1e8]
    39e4:	48 89 c7             	mov    rdi,rax
    39e7:	e8 c4 e9 ff ff       	call   23b0 <fclose@plt>
    39ec:	48 8b 85 f8 fd ff ff 	mov    rax,QWORD PTR [rbp-0x208]
    39f3:	48 8b 15 2e d6 00 00 	mov    rdx,QWORD PTR [rip+0xd62e]        # 11028 <stdout@GLIBC_2.2.5>
    39fa:	48 89 d6             	mov    rsi,rdx
    39fd:	48 89 c7             	mov    rdi,rax
    3a00:	e8 db e9 ff ff       	call   23e0 <fputs@plt>
    3a05:	48 8b 85 10 fe ff ff 	mov    rax,QWORD PTR [rbp-0x1f0]
    3a0c:	48 89 c7             	mov    rdi,rax
    3a0f:	e8 9c e9 ff ff       	call   23b0 <fclose@plt>
    3a14:	48 8b 85 f8 fd ff ff 	mov    rax,QWORD PTR [rbp-0x208]
    3a1b:	48 89 c7             	mov    rdi,rax
    3a1e:	e8 0d e9 ff ff       	call   2330 <free@plt>
    3a23:	0f b6 05 66 d6 00 00 	movzx  eax,BYTE PTR [rip+0xd666]        # 11090 <is_parallel_nb@@Base>
    3a2a:	83 f0 01             	xor    eax,0x1
    3a2d:	84 c0                	test   al,al
    3a2f:	0f 84 c2 07 00 00    	je     41f7 <TEST_permutation_t_float_trans____1+0xa48>
    3a35:	8b 85 ec fd ff ff    	mov    eax,DWORD PTR [rbp-0x214]
    3a3b:	48 98                	cdqe   
    3a3d:	48 8b 95 08 fe ff ff 	mov    rdx,QWORD PTR [rbp-0x1f8]
    3a44:	48 8b 12             	mov    rdx,QWORD PTR [rdx]
    3a47:	48 89 c6             	mov    rsi,rax
    3a4a:	48 89 d7             	mov    rdi,rdx
    3a4d:	e8 ae e9 ff ff       	call   2400 <expected_EQ_TYPE_L_INT@plt>
    3a52:	84 c0                	test   al,al
    3a54:	0f 84 87 02 00 00    	je     3ce1 <TEST_permutation_t_float_trans____1+0x532>
    3a5a:	48 8d 95 f0 fd ff ff 	lea    rdx,[rbp-0x210]
    3a61:	48 8d 85 f8 fd ff ff 	lea    rax,[rbp-0x208]
    3a68:	48 89 d6             	mov    rsi,rdx
    3a6b:	48 89 c7             	mov    rdi,rax
    3a6e:	e8 dd e8 ff ff       	call   2350 <open_memstream@plt>
    3a73:	48 89 85 a0 fe ff ff 	mov    QWORD PTR [rbp-0x160],rax
    3a7a:	48 83 bd a0 fe ff ff 	cmp    QWORD PTR [rbp-0x160],0x0
    3a81:	00 
    3a82:	75 38                	jne    3abc <TEST_permutation_t_float_trans____1+0x30d>
    3a84:	48 8b 05 75 d6 00 00 	mov    rax,QWORD PTR [rip+0xd675]        # 11100 <stderr@GLIBC_2.2.5>
    3a8b:	4c 8d 05 8e a8 00 00 	lea    r8,[rip+0xa88e]        # e320 <__func__.3>
    3a92:	b9 25 00 00 00       	mov    ecx,0x25
    3a97:	48 8d 15 a6 a5 00 00 	lea    rdx,[rip+0xa5a6]        # e044 <_IO_stdin_used+0x44>
    3a9e:	48 8d 35 ab a5 00 00 	lea    rsi,[rip+0xa5ab]        # e050 <_IO_stdin_used+0x50>
    3aa5:	48 89 c7             	mov    rdi,rax
    3aa8:	b8 00 00 00 00       	mov    eax,0x0
    3aad:	e8 ae e9 ff ff       	call   2460 <fprintf@plt>
    3ab2:	bf 00 00 00 00       	mov    edi,0x0
    3ab7:	e8 64 ea ff ff       	call   2520 <exit@plt>
    3abc:	8b 05 de d5 00 00    	mov    eax,DWORD PTR [rip+0xd5de]        # 110a0 <k_DEFAULT@@Base>
    3ac2:	48 98                	cdqe   
    3ac4:	48 8d 14 c5 00 00 00 	lea    rdx,[rax*8+0x0]
    3acb:	00 
    3acc:	48 8d 05 ed d5 00 00 	lea    rax,[rip+0xd5ed]        # 110c0 <colors_f@@Base>
    3ad3:	48 8b 34 02          	mov    rsi,QWORD PTR [rdx+rax*1]
    3ad7:	8b 05 a3 d5 00 00    	mov    eax,DWORD PTR [rip+0xd5a3]        # 11080 <hk_TR@@Base>
    3add:	48 98                	cdqe   
    3adf:	48 8d 14 c5 00 00 00 	lea    rdx,[rax*8+0x0]
    3ae6:	00 
    3ae7:	48 8d 05 52 d5 00 00 	lea    rax,[rip+0xd552]        # 11040 <tab_hk_f@@Base>
    3aee:	48 8b 0c 02          	mov    rcx,QWORD PTR [rdx+rax*1]
    3af2:	8b 05 f8 d5 00 00    	mov    eax,DWORD PTR [rip+0xd5f8]        # 110f0 <k_GREEN@@Base>
    3af8:	48 98                	cdqe   
    3afa:	48 8d 14 c5 00 00 00 	lea    rdx,[rax*8+0x0]
    3b01:	00 
    3b02:	48 8d 05 b7 d5 00 00 	lea    rax,[rip+0xd5b7]        # 110c0 <colors_f@@Base>
    3b09:	48 8b 14 02          	mov    rdx,QWORD PTR [rdx+rax*1]
    3b0d:	48 8b 85 a0 fe ff ff 	mov    rax,QWORD PTR [rbp-0x160]
    3b14:	4c 8d 0d 05 a8 00 00 	lea    r9,[rip+0xa805]        # e320 <__func__.3>
    3b1b:	49 89 f0             	mov    r8,rsi
    3b1e:	48 8d 35 63 a5 00 00 	lea    rsi,[rip+0xa563]        # e088 <_IO_stdin_used+0x88>
    3b25:	48 89 c7             	mov    rdi,rax
    3b28:	b8 00 00 00 00       	mov    eax,0x0
    3b2d:	e8 2e e9 ff ff       	call   2460 <fprintf@plt>
    3b32:	48 8b 85 a0 fe ff ff 	mov    rax,QWORD PTR [rbp-0x160]
    3b39:	48 89 c7             	mov    rdi,rax
    3b3c:	e8 4f e9 ff ff       	call   2490 <fflush@plt>
    3b41:	0f b6 05 48 d5 00 00 	movzx  eax,BYTE PTR [rip+0xd548]        # 11090 <is_parallel_nb@@Base>
    3b48:	84 c0                	test   al,al
    3b4a:	0f 84 01 01 00 00    	je     3c51 <TEST_permutation_t_float_trans____1+0x4a2>
    3b50:	e8 fb e8 ff ff       	call   2450 <id_of_thread_executed@plt>
    3b55:	48 89 85 b0 fe ff ff 	mov    QWORD PTR [rbp-0x150],rax
    3b5c:	0f b6 05 bd d4 00 00 	movzx  eax,BYTE PTR [rip+0xd4bd]        # 11020 <log_parallel@@Base>
    3b63:	84 c0                	test   al,al
    3b65:	74 76                	je     3bdd <TEST_permutation_t_float_trans____1+0x42e>
    3b67:	48 8b 85 f8 fd ff ff 	mov    rax,QWORD PTR [rbp-0x208]
    3b6e:	48 8b 15 b3 d4 00 00 	mov    rdx,QWORD PTR [rip+0xd4b3]        # 11028 <stdout@GLIBC_2.2.5>
    3b75:	48 89 d6             	mov    rsi,rdx
    3b78:	48 89 c7             	mov    rdi,rax
    3b7b:	e8 60 e8 ff ff       	call   23e0 <fputs@plt>
    3b80:	48 83 bd b0 fe ff ff 	cmp    QWORD PTR [rbp-0x150],0x0
    3b87:	00 
    3b88:	0f 88 30 01 00 00    	js     3cbe <TEST_permutation_t_float_trans____1+0x50f>
    3b8e:	48 8b 85 f8 fd ff ff 	mov    rax,QWORD PTR [rbp-0x208]
    3b95:	48 8b 0d 94 d4 00 00 	mov    rcx,QWORD PTR [rip+0xd494]        # 11030 <f_ou_th@@Base>
    3b9c:	48 8b 95 b0 fe ff ff 	mov    rdx,QWORD PTR [rbp-0x150]
    3ba3:	48 c1 e2 03          	shl    rdx,0x3
    3ba7:	48 01 ca             	add    rdx,rcx
    3baa:	48 8b 12             	mov    rdx,QWORD PTR [rdx]
    3bad:	48 89 d6             	mov    rsi,rdx
    3bb0:	48 89 c7             	mov    rdi,rax
    3bb3:	e8 28 e8 ff ff       	call   23e0 <fputs@plt>
    3bb8:	48 8b 15 71 d4 00 00 	mov    rdx,QWORD PTR [rip+0xd471]        # 11030 <f_ou_th@@Base>
    3bbf:	48 8b 85 b0 fe ff ff 	mov    rax,QWORD PTR [rbp-0x150]
    3bc6:	48 c1 e0 03          	shl    rax,0x3
    3bca:	48 01 d0             	add    rax,rdx
    3bcd:	48 8b 00             	mov    rax,QWORD PTR [rax]
    3bd0:	48 89 c7             	mov    rdi,rax
    3bd3:	e8 b8 e8 ff ff       	call   2490 <fflush@plt>
    3bd8:	e9 e1 00 00 00       	jmp    3cbe <TEST_permutation_t_float_trans____1+0x50f>
    3bdd:	48 83 bd b0 fe ff ff 	cmp    QWORD PTR [rbp-0x150],0x0
    3be4:	00 
    3be5:	78 4f                	js     3c36 <TEST_permutation_t_float_trans____1+0x487>
    3be7:	48 8b 85 f8 fd ff ff 	mov    rax,QWORD PTR [rbp-0x208]
    3bee:	48 8b 0d 3b d4 00 00 	mov    rcx,QWORD PTR [rip+0xd43b]        # 11030 <f_ou_th@@Base>
    3bf5:	48 8b 95 b0 fe ff ff 	mov    rdx,QWORD PTR [rbp-0x150]
    3bfc:	48 c1 e2 03          	shl    rdx,0x3
    3c00:	48 01 ca             	add    rdx,rcx
    3c03:	48 8b 12             	mov    rdx,QWORD PTR [rdx]
    3c06:	48 89 d6             	mov    rsi,rdx
    3c09:	48 89 c7             	mov    rdi,rax
    3c0c:	e8 cf e7 ff ff       	call   23e0 <fputs@plt>
    3c11:	48 8b 15 18 d4 00 00 	mov    rdx,QWORD PTR [rip+0xd418]        # 11030 <f_ou_th@@Base>
    3c18:	48 8b 85 b0 fe ff ff 	mov    rax,QWORD PTR [rbp-0x150]
    3c1f:	48 c1 e0 03          	shl    rax,0x3
    3c23:	48 01 d0             	add    rax,rdx
    3c26:	48 8b 00             	mov    rax,QWORD PTR [rax]
    3c29:	48 89 c7             	mov    rdi,rax
    3c2c:	e8 5f e8 ff ff       	call   2490 <fflush@plt>
    3c31:	e9 88 00 00 00       	jmp    3cbe <TEST_permutation_t_float_trans____1+0x50f>
    3c36:	48 8b 85 f8 fd ff ff 	mov    rax,QWORD PTR [rbp-0x208]
    3c3d:	48 8b 15 e4 d3 00 00 	mov    rdx,QWORD PTR [rip+0xd3e4]        # 11028 <stdout@GLIBC_2.2.5>
    3c44:	48 89 d6             	mov    rsi,rdx
    3c47:	48 89 c7             	mov    rdi,rax
    3c4a:	e8 91 e7 ff ff       	call   23e0 <fputs@plt>
    3c4f:	eb 6d                	jmp    3cbe <TEST_permutation_t_float_trans____1+0x50f>
    3c51:	48 8b 05 e0 d3 00 00 	mov    rax,QWORD PTR [rip+0xd3e0]        # 11038 <savelog@@Base>
    3c58:	48 85 c0             	test   rax,rax
    3c5b:	74 48                	je     3ca5 <TEST_permutation_t_float_trans____1+0x4f6>
    3c5d:	48 8b 05 d4 d3 00 00 	mov    rax,QWORD PTR [rip+0xd3d4]        # 11038 <savelog@@Base>
    3c64:	48 8d 15 14 a4 00 00 	lea    rdx,[rip+0xa414]        # e07f <_IO_stdin_used+0x7f>
    3c6b:	48 89 d6             	mov    rsi,rdx
    3c6e:	48 89 c7             	mov    rdi,rax
    3c71:	e8 8a e8 ff ff       	call   2500 <fopen@plt>
    3c76:	48 89 85 a8 fe ff ff 	mov    QWORD PTR [rbp-0x158],rax
    3c7d:	48 8b 85 f8 fd ff ff 	mov    rax,QWORD PTR [rbp-0x208]
    3c84:	48 8b 95 a8 fe ff ff 	mov    rdx,QWORD PTR [rbp-0x158]
    3c8b:	48 89 d6             	mov    rsi,rdx
    3c8e:	48 89 c7             	mov    rdi,rax
    3c91:	e8 4a e7 ff ff       	call   23e0 <fputs@plt>
    3c96:	48 8b 85 a8 fe ff ff 	mov    rax,QWORD PTR [rbp-0x158]
    3c9d:	48 89 c7             	mov    rdi,rax
    3ca0:	e8 0b e7 ff ff       	call   23b0 <fclose@plt>
    3ca5:	48 8b 85 f8 fd ff ff 	mov    rax,QWORD PTR [rbp-0x208]
    3cac:	48 8b 15 75 d3 00 00 	mov    rdx,QWORD PTR [rip+0xd375]        # 11028 <stdout@GLIBC_2.2.5>
    3cb3:	48 89 d6             	mov    rsi,rdx
    3cb6:	48 89 c7             	mov    rdi,rax
    3cb9:	e8 22 e7 ff ff       	call   23e0 <fputs@plt>
    3cbe:	48 8b 85 a0 fe ff ff 	mov    rax,QWORD PTR [rbp-0x160]
    3cc5:	48 89 c7             	mov    rdi,rax
    3cc8:	e8 e3 e6 ff ff       	call   23b0 <fclose@plt>
    3ccd:	48 8b 85 f8 fd ff ff 	mov    rax,QWORD PTR [rbp-0x208]
    3cd4:	48 89 c7             	mov    rdi,rax
    3cd7:	e8 54 e6 ff ff       	call   2330 <free@plt>
    3cdc:	e9 dd 0c 00 00       	jmp    49be <TEST_permutation_t_float_trans____1+0x120f>
    3ce1:	48 8d 95 f0 fd ff ff 	lea    rdx,[rbp-0x210]
    3ce8:	48 8d 85 f8 fd ff ff 	lea    rax,[rbp-0x208]
    3cef:	48 89 d6             	mov    rsi,rdx
    3cf2:	48 89 c7             	mov    rdi,rax
    3cf5:	e8 56 e6 ff ff       	call   2350 <open_memstream@plt>
    3cfa:	48 89 85 70 fe ff ff 	mov    QWORD PTR [rbp-0x190],rax
    3d01:	48 83 bd 70 fe ff ff 	cmp    QWORD PTR [rbp-0x190],0x0
    3d08:	00 
    3d09:	75 38                	jne    3d43 <TEST_permutation_t_float_trans____1+0x594>
    3d0b:	48 8b 05 ee d3 00 00 	mov    rax,QWORD PTR [rip+0xd3ee]        # 11100 <stderr@GLIBC_2.2.5>
    3d12:	4c 8d 05 07 a6 00 00 	lea    r8,[rip+0xa607]        # e320 <__func__.3>
    3d19:	b9 25 00 00 00       	mov    ecx,0x25
    3d1e:	48 8d 15 1f a3 00 00 	lea    rdx,[rip+0xa31f]        # e044 <_IO_stdin_used+0x44>
    3d25:	48 8d 35 24 a3 00 00 	lea    rsi,[rip+0xa324]        # e050 <_IO_stdin_used+0x50>
    3d2c:	48 89 c7             	mov    rdi,rax
    3d2f:	b8 00 00 00 00       	mov    eax,0x0
    3d34:	e8 27 e7 ff ff       	call   2460 <fprintf@plt>
    3d39:	bf 00 00 00 00       	mov    edi,0x0
    3d3e:	e8 dd e7 ff ff       	call   2520 <exit@plt>
    3d43:	8b 85 ec fd ff ff    	mov    eax,DWORD PTR [rbp-0x214]
    3d49:	48 98                	cdqe   
    3d4b:	48 89 c7             	mov    rdi,rax
    3d4e:	e8 dd e7 ff ff       	call   2530 <TYPE_L_INT_TO_STR@plt>
    3d53:	48 89 c3             	mov    rbx,rax
    3d56:	48 8b 85 08 fe ff ff 	mov    rax,QWORD PTR [rbp-0x1f8]
    3d5d:	48 8b 00             	mov    rax,QWORD PTR [rax]
    3d60:	48 89 c7             	mov    rdi,rax
    3d63:	e8 c8 e7 ff ff       	call   2530 <TYPE_L_INT_TO_STR@plt>
    3d68:	48 89 c2             	mov    rdx,rax
    3d6b:	48 8b 85 70 fe ff ff 	mov    rax,QWORD PTR [rbp-0x190]
    3d72:	53                   	push   rbx
    3d73:	48 8d 0d db a3 00 00 	lea    rcx,[rip+0xa3db]        # e155 <_IO_stdin_used+0x155>
    3d7a:	51                   	push   rcx
    3d7b:	52                   	push   rdx
    3d7c:	48 8d 15 25 a3 00 00 	lea    rdx,[rip+0xa325]        # e0a8 <_IO_stdin_used+0xa8>
    3d83:	52                   	push   rdx
    3d84:	48 8d 15 ca a3 00 00 	lea    rdx,[rip+0xa3ca]        # e155 <_IO_stdin_used+0x155>
    3d8b:	52                   	push   rdx
    3d8c:	48 8d 15 71 a3 00 00 	lea    rdx,[rip+0xa371]        # e104 <_IO_stdin_used+0x104>
    3d93:	52                   	push   rdx
    3d94:	4c 8d 0d 0d a3 00 00 	lea    r9,[rip+0xa30d]        # e0a8 <_IO_stdin_used+0xa8>
    3d9b:	4c 8d 05 7e a5 00 00 	lea    r8,[rip+0xa57e]        # e320 <__func__.3>
    3da2:	b9 25 00 00 00       	mov    ecx,0x25
    3da7:	48 8d 15 96 a2 00 00 	lea    rdx,[rip+0xa296]        # e044 <_IO_stdin_used+0x44>
    3dae:	48 8d 35 fb a2 00 00 	lea    rsi,[rip+0xa2fb]        # e0b0 <_IO_stdin_used+0xb0>
    3db5:	48 89 c7             	mov    rdi,rax
    3db8:	b8 00 00 00 00       	mov    eax,0x0
    3dbd:	e8 9e e6 ff ff       	call   2460 <fprintf@plt>
    3dc2:	48 83 c4 30          	add    rsp,0x30
    3dc6:	48 8b 85 70 fe ff ff 	mov    rax,QWORD PTR [rbp-0x190]
    3dcd:	48 89 c7             	mov    rdi,rax
    3dd0:	e8 bb e6 ff ff       	call   2490 <fflush@plt>
    3dd5:	0f b6 05 b4 d2 00 00 	movzx  eax,BYTE PTR [rip+0xd2b4]        # 11090 <is_parallel_nb@@Base>
    3ddc:	84 c0                	test   al,al
    3dde:	0f 84 01 01 00 00    	je     3ee5 <TEST_permutation_t_float_trans____1+0x736>
    3de4:	e8 67 e6 ff ff       	call   2450 <id_of_thread_executed@plt>
    3de9:	48 89 85 80 fe ff ff 	mov    QWORD PTR [rbp-0x180],rax
    3df0:	0f b6 05 29 d2 00 00 	movzx  eax,BYTE PTR [rip+0xd229]        # 11020 <log_parallel@@Base>
    3df7:	84 c0                	test   al,al
    3df9:	74 76                	je     3e71 <TEST_permutation_t_float_trans____1+0x6c2>
    3dfb:	48 8b 85 f8 fd ff ff 	mov    rax,QWORD PTR [rbp-0x208]
    3e02:	48 8b 15 1f d2 00 00 	mov    rdx,QWORD PTR [rip+0xd21f]        # 11028 <stdout@GLIBC_2.2.5>
    3e09:	48 89 d6             	mov    rsi,rdx
    3e0c:	48 89 c7             	mov    rdi,rax
    3e0f:	e8 cc e5 ff ff       	call   23e0 <fputs@plt>
    3e14:	48 83 bd 80 fe ff ff 	cmp    QWORD PTR [rbp-0x180],0x0
    3e1b:	00 
    3e1c:	0f 88 30 01 00 00    	js     3f52 <TEST_permutation_t_float_trans____1+0x7a3>
    3e22:	48 8b 85 f8 fd ff ff 	mov    rax,QWORD PTR [rbp-0x208]
    3e29:	48 8b 0d 00 d2 00 00 	mov    rcx,QWORD PTR [rip+0xd200]        # 11030 <f_ou_th@@Base>
    3e30:	48 8b 95 80 fe ff ff 	mov    rdx,QWORD PTR [rbp-0x180]
    3e37:	48 c1 e2 03          	shl    rdx,0x3
    3e3b:	48 01 ca             	add    rdx,rcx
    3e3e:	48 8b 12             	mov    rdx,QWORD PTR [rdx]
    3e41:	48 89 d6             	mov    rsi,rdx
    3e44:	48 89 c7             	mov    rdi,rax
    3e47:	e8 94 e5 ff ff       	call   23e0 <fputs@plt>
    3e4c:	48 8b 15 dd d1 00 00 	mov    rdx,QWORD PTR [rip+0xd1dd]        # 11030 <f_ou_th@@Base>
    3e53:	48 8b 85 80 fe ff ff 	mov    rax,QWORD PTR [rbp-0x180]
    3e5a:	48 c1 e0 03          	shl    rax,0x3
    3e5e:	48 01 d0             	add    rax,rdx
    3e61:	48 8b 00             	mov    rax,QWORD PTR [rax]
    3e64:	48 89 c7             	mov    rdi,rax
    3e67:	e8 24 e6 ff ff       	call   2490 <fflush@plt>
    3e6c:	e9 e1 00 00 00       	jmp    3f52 <TEST_permutation_t_float_trans____1+0x7a3>
    3e71:	48 83 bd 80 fe ff ff 	cmp    QWORD PTR [rbp-0x180],0x0
    3e78:	00 
    3e79:	78 4f                	js     3eca <TEST_permutation_t_float_trans____1+0x71b>
    3e7b:	48 8b 85 f8 fd ff ff 	mov    rax,QWORD PTR [rbp-0x208]
    3e82:	48 8b 0d a7 d1 00 00 	mov    rcx,QWORD PTR [rip+0xd1a7]        # 11030 <f_ou_th@@Base>
    3e89:	48 8b 95 80 fe ff ff 	mov    rdx,QWORD PTR [rbp-0x180]
    3e90:	48 c1 e2 03          	shl    rdx,0x3
    3e94:	48 01 ca             	add    rdx,rcx
    3e97:	48 8b 12             	mov    rdx,QWORD PTR [rdx]
    3e9a:	48 89 d6             	mov    rsi,rdx
    3e9d:	48 89 c7             	mov    rdi,rax
    3ea0:	e8 3b e5 ff ff       	call   23e0 <fputs@plt>
    3ea5:	48 8b 15 84 d1 00 00 	mov    rdx,QWORD PTR [rip+0xd184]        # 11030 <f_ou_th@@Base>
    3eac:	48 8b 85 80 fe ff ff 	mov    rax,QWORD PTR [rbp-0x180]
    3eb3:	48 c1 e0 03          	shl    rax,0x3
    3eb7:	48 01 d0             	add    rax,rdx
    3eba:	48 8b 00             	mov    rax,QWORD PTR [rax]
    3ebd:	48 89 c7             	mov    rdi,rax
    3ec0:	e8 cb e5 ff ff       	call   2490 <fflush@plt>
    3ec5:	e9 88 00 00 00       	jmp    3f52 <TEST_permutation_t_float_trans____1+0x7a3>
    3eca:	48 8b 85 f8 fd ff ff 	mov    rax,QWORD PTR [rbp-0x208]
    3ed1:	48 8b 15 50 d1 00 00 	mov    rdx,QWORD PTR [rip+0xd150]        # 11028 <stdout@GLIBC_2.2.5>
    3ed8:	48 89 d6             	mov    rsi,rdx
    3edb:	48 89 c7             	mov    rdi,rax
    3ede:	e8 fd e4 ff ff       	call   23e0 <fputs@plt>
    3ee3:	eb 6d                	jmp    3f52 <TEST_permutation_t_float_trans____1+0x7a3>
    3ee5:	48 8b 05 4c d1 00 00 	mov    rax,QWORD PTR [rip+0xd14c]        # 11038 <savelog@@Base>
    3eec:	48 85 c0             	test   rax,rax
    3eef:	74 48                	je     3f39 <TEST_permutation_t_float_trans____1+0x78a>
    3ef1:	48 8b 05 40 d1 00 00 	mov    rax,QWORD PTR [rip+0xd140]        # 11038 <savelog@@Base>
    3ef8:	48 8d 15 80 a1 00 00 	lea    rdx,[rip+0xa180]        # e07f <_IO_stdin_used+0x7f>
    3eff:	48 89 d6             	mov    rsi,rdx
    3f02:	48 89 c7             	mov    rdi,rax
    3f05:	e8 f6 e5 ff ff       	call   2500 <fopen@plt>
    3f0a:	48 89 85 78 fe ff ff 	mov    QWORD PTR [rbp-0x188],rax
    3f11:	48 8b 85 f8 fd ff ff 	mov    rax,QWORD PTR [rbp-0x208]
    3f18:	48 8b 95 78 fe ff ff 	mov    rdx,QWORD PTR [rbp-0x188]
    3f1f:	48 89 d6             	mov    rsi,rdx
    3f22:	48 89 c7             	mov    rdi,rax
    3f25:	e8 b6 e4 ff ff       	call   23e0 <fputs@plt>
    3f2a:	48 8b 85 78 fe ff ff 	mov    rax,QWORD PTR [rbp-0x188]
    3f31:	48 89 c7             	mov    rdi,rax
    3f34:	e8 77 e4 ff ff       	call   23b0 <fclose@plt>
    3f39:	48 8b 85 f8 fd ff ff 	mov    rax,QWORD PTR [rbp-0x208]
    3f40:	48 8b 15 e1 d0 00 00 	mov    rdx,QWORD PTR [rip+0xd0e1]        # 11028 <stdout@GLIBC_2.2.5>
    3f47:	48 89 d6             	mov    rsi,rdx
    3f4a:	48 89 c7             	mov    rdi,rax
    3f4d:	e8 8e e4 ff ff       	call   23e0 <fputs@plt>
    3f52:	48 8b 85 70 fe ff ff 	mov    rax,QWORD PTR [rbp-0x190]
    3f59:	48 89 c7             	mov    rdi,rax
    3f5c:	e8 4f e4 ff ff       	call   23b0 <fclose@plt>
    3f61:	48 8b 85 f8 fd ff ff 	mov    rax,QWORD PTR [rbp-0x208]
    3f68:	48 89 c7             	mov    rdi,rax
    3f6b:	e8 c0 e3 ff ff       	call   2330 <free@plt>
    3f70:	48 8d 95 f0 fd ff ff 	lea    rdx,[rbp-0x210]
    3f77:	48 8d 85 f8 fd ff ff 	lea    rax,[rbp-0x208]
    3f7e:	48 89 d6             	mov    rsi,rdx
    3f81:	48 89 c7             	mov    rdi,rax
    3f84:	e8 c7 e3 ff ff       	call   2350 <open_memstream@plt>
    3f89:	48 89 85 88 fe ff ff 	mov    QWORD PTR [rbp-0x178],rax
    3f90:	48 83 bd 88 fe ff ff 	cmp    QWORD PTR [rbp-0x178],0x0
    3f97:	00 
    3f98:	75 38                	jne    3fd2 <TEST_permutation_t_float_trans____1+0x823>
    3f9a:	48 8b 05 5f d1 00 00 	mov    rax,QWORD PTR [rip+0xd15f]        # 11100 <stderr@GLIBC_2.2.5>
    3fa1:	4c 8d 05 78 a3 00 00 	lea    r8,[rip+0xa378]        # e320 <__func__.3>
    3fa8:	b9 25 00 00 00       	mov    ecx,0x25
    3fad:	48 8d 15 90 a0 00 00 	lea    rdx,[rip+0xa090]        # e044 <_IO_stdin_used+0x44>
    3fb4:	48 8d 35 95 a0 00 00 	lea    rsi,[rip+0xa095]        # e050 <_IO_stdin_used+0x50>
    3fbb:	48 89 c7             	mov    rdi,rax
    3fbe:	b8 00 00 00 00       	mov    eax,0x0
    3fc3:	e8 98 e4 ff ff       	call   2460 <fprintf@plt>
    3fc8:	bf 00 00 00 00       	mov    edi,0x0
    3fcd:	e8 4e e5 ff ff       	call   2520 <exit@plt>
    3fd2:	8b 05 c8 d0 00 00    	mov    eax,DWORD PTR [rip+0xd0c8]        # 110a0 <k_DEFAULT@@Base>
    3fd8:	48 98                	cdqe   
    3fda:	48 8d 14 c5 00 00 00 	lea    rdx,[rax*8+0x0]
    3fe1:	00 
    3fe2:	48 8d 05 d7 d0 00 00 	lea    rax,[rip+0xd0d7]        # 110c0 <colors_f@@Base>
    3fe9:	48 8b 34 02          	mov    rsi,QWORD PTR [rdx+rax*1]
    3fed:	8b 05 8d d0 00 00    	mov    eax,DWORD PTR [rip+0xd08d]        # 11080 <hk_TR@@Base>
    3ff3:	48 98                	cdqe   
    3ff5:	48 8d 14 c5 00 00 00 	lea    rdx,[rax*8+0x0]
    3ffc:	00 
    3ffd:	48 8d 05 3c d0 00 00 	lea    rax,[rip+0xd03c]        # 11040 <tab_hk_f@@Base>
    4004:	48 8b 0c 02          	mov    rcx,QWORD PTR [rdx+rax*1]
    4008:	8b 05 76 d0 00 00    	mov    eax,DWORD PTR [rip+0xd076]        # 11084 <k_RED@@Base>
    400e:	48 98                	cdqe   
    4010:	48 8d 14 c5 00 00 00 	lea    rdx,[rax*8+0x0]
    4017:	00 
    4018:	48 8d 05 a1 d0 00 00 	lea    rax,[rip+0xd0a1]        # 110c0 <colors_f@@Base>
    401f:	48 8b 14 02          	mov    rdx,QWORD PTR [rdx+rax*1]
    4023:	48 8b 85 88 fe ff ff 	mov    rax,QWORD PTR [rbp-0x178]
    402a:	4c 8d 0d ef a2 00 00 	lea    r9,[rip+0xa2ef]        # e320 <__func__.3>
    4031:	49 89 f0             	mov    r8,rsi
    4034:	48 8d 35 cd a0 00 00 	lea    rsi,[rip+0xa0cd]        # e108 <_IO_stdin_used+0x108>
    403b:	48 89 c7             	mov    rdi,rax
    403e:	b8 00 00 00 00       	mov    eax,0x0
    4043:	e8 18 e4 ff ff       	call   2460 <fprintf@plt>
    4048:	48 8b 85 88 fe ff ff 	mov    rax,QWORD PTR [rbp-0x178]
    404f:	48 89 c7             	mov    rdi,rax
    4052:	e8 39 e4 ff ff       	call   2490 <fflush@plt>
    4057:	0f b6 05 32 d0 00 00 	movzx  eax,BYTE PTR [rip+0xd032]        # 11090 <is_parallel_nb@@Base>
    405e:	84 c0                	test   al,al
    4060:	0f 84 01 01 00 00    	je     4167 <TEST_permutation_t_float_trans____1+0x9b8>
    4066:	e8 e5 e3 ff ff       	call   2450 <id_of_thread_executed@plt>
    406b:	48 89 85 98 fe ff ff 	mov    QWORD PTR [rbp-0x168],rax
    4072:	0f b6 05 a7 cf 00 00 	movzx  eax,BYTE PTR [rip+0xcfa7]        # 11020 <log_parallel@@Base>
    4079:	84 c0                	test   al,al
    407b:	74 76                	je     40f3 <TEST_permutation_t_float_trans____1+0x944>
    407d:	48 8b 85 f8 fd ff ff 	mov    rax,QWORD PTR [rbp-0x208]
    4084:	48 8b 15 9d cf 00 00 	mov    rdx,QWORD PTR [rip+0xcf9d]        # 11028 <stdout@GLIBC_2.2.5>
    408b:	48 89 d6             	mov    rsi,rdx
    408e:	48 89 c7             	mov    rdi,rax
    4091:	e8 4a e3 ff ff       	call   23e0 <fputs@plt>
    4096:	48 83 bd 98 fe ff ff 	cmp    QWORD PTR [rbp-0x168],0x0
    409d:	00 
    409e:	0f 88 30 01 00 00    	js     41d4 <TEST_permutation_t_float_trans____1+0xa25>
    40a4:	48 8b 85 f8 fd ff ff 	mov    rax,QWORD PTR [rbp-0x208]
    40ab:	48 8b 0d 7e cf 00 00 	mov    rcx,QWORD PTR [rip+0xcf7e]        # 11030 <f_ou_th@@Base>
    40b2:	48 8b 95 98 fe ff ff 	mov    rdx,QWORD PTR [rbp-0x168]
    40b9:	48 c1 e2 03          	shl    rdx,0x3
    40bd:	48 01 ca             	add    rdx,rcx
    40c0:	48 8b 12             	mov    rdx,QWORD PTR [rdx]
    40c3:	48 89 d6             	mov    rsi,rdx
    40c6:	48 89 c7             	mov    rdi,rax
    40c9:	e8 12 e3 ff ff       	call   23e0 <fputs@plt>
    40ce:	48 8b 15 5b cf 00 00 	mov    rdx,QWORD PTR [rip+0xcf5b]        # 11030 <f_ou_th@@Base>
    40d5:	48 8b 85 98 fe ff ff 	mov    rax,QWORD PTR [rbp-0x168]
    40dc:	48 c1 e0 03          	shl    rax,0x3
    40e0:	48 01 d0             	add    rax,rdx
    40e3:	48 8b 00             	mov    rax,QWORD PTR [rax]
    40e6:	48 89 c7             	mov    rdi,rax
    40e9:	e8 a2 e3 ff ff       	call   2490 <fflush@plt>
    40ee:	e9 e1 00 00 00       	jmp    41d4 <TEST_permutation_t_float_trans____1+0xa25>
    40f3:	48 83 bd 98 fe ff ff 	cmp    QWORD PTR [rbp-0x168],0x0
    40fa:	00 
    40fb:	78 4f                	js     414c <TEST_permutation_t_float_trans____1+0x99d>
    40fd:	48 8b 85 f8 fd ff ff 	mov    rax,QWORD PTR [rbp-0x208]
    4104:	48 8b 0d 25 cf 00 00 	mov    rcx,QWORD PTR [rip+0xcf25]        # 11030 <f_ou_th@@Base>
    410b:	48 8b 95 98 fe ff ff 	mov    rdx,QWORD PTR [rbp-0x168]
    4112:	48 c1 e2 03          	shl    rdx,0x3
    4116:	48 01 ca             	add    rdx,rcx
    4119:	48 8b 12             	mov    rdx,QWORD PTR [rdx]
    411c:	48 89 d6             	mov    rsi,rdx
    411f:	48 89 c7             	mov    rdi,rax
    4122:	e8 b9 e2 ff ff       	call   23e0 <fputs@plt>
    4127:	48 8b 15 02 cf 00 00 	mov    rdx,QWORD PTR [rip+0xcf02]        # 11030 <f_ou_th@@Base>
    412e:	48 8b 85 98 fe ff ff 	mov    rax,QWORD PTR [rbp-0x168]
    4135:	48 c1 e0 03          	shl    rax,0x3
    4139:	48 01 d0             	add    rax,rdx
    413c:	48 8b 00             	mov    rax,QWORD PTR [rax]
    413f:	48 89 c7             	mov    rdi,rax
    4142:	e8 49 e3 ff ff       	call   2490 <fflush@plt>
    4147:	e9 88 00 00 00       	jmp    41d4 <TEST_permutation_t_float_trans____1+0xa25>
    414c:	48 8b 85 f8 fd ff ff 	mov    rax,QWORD PTR [rbp-0x208]
    4153:	48 8b 15 ce ce 00 00 	mov    rdx,QWORD PTR [rip+0xcece]        # 11028 <stdout@GLIBC_2.2.5>
    415a:	48 89 d6             	mov    rsi,rdx
    415d:	48 89 c7             	mov    rdi,rax
    4160:	e8 7b e2 ff ff       	call   23e0 <fputs@plt>
    4165:	eb 6d                	jmp    41d4 <TEST_permutation_t_float_trans____1+0xa25>
    4167:	48 8b 05 ca ce 00 00 	mov    rax,QWORD PTR [rip+0xceca]        # 11038 <savelog@@Base>
    416e:	48 85 c0             	test   rax,rax
    4171:	74 48                	je     41bb <TEST_permutation_t_float_trans____1+0xa0c>
    4173:	48 8b 05 be ce 00 00 	mov    rax,QWORD PTR [rip+0xcebe]        # 11038 <savelog@@Base>
    417a:	48 8d 15 fe 9e 00 00 	lea    rdx,[rip+0x9efe]        # e07f <_IO_stdin_used+0x7f>
    4181:	48 89 d6             	mov    rsi,rdx
    4184:	48 89 c7             	mov    rdi,rax
    4187:	e8 74 e3 ff ff       	call   2500 <fopen@plt>
    418c:	48 89 85 90 fe ff ff 	mov    QWORD PTR [rbp-0x170],rax
    4193:	48 8b 85 f8 fd ff ff 	mov    rax,QWORD PTR [rbp-0x208]
    419a:	48 8b 95 90 fe ff ff 	mov    rdx,QWORD PTR [rbp-0x170]
    41a1:	48 89 d6             	mov    rsi,rdx
    41a4:	48 89 c7             	mov    rdi,rax
    41a7:	e8 34 e2 ff ff       	call   23e0 <fputs@plt>
    41ac:	48 8b 85 90 fe ff ff 	mov    rax,QWORD PTR [rbp-0x170]
    41b3:	48 89 c7             	mov    rdi,rax
    41b6:	e8 f5 e1 ff ff       	call   23b0 <fclose@plt>
    41bb:	48 8b 85 f8 fd ff ff 	mov    rax,QWORD PTR [rbp-0x208]
    41c2:	48 8b 15 5f ce 00 00 	mov    rdx,QWORD PTR [rip+0xce5f]        # 11028 <stdout@GLIBC_2.2.5>
    41c9:	48 89 d6             	mov    rsi,rdx
    41cc:	48 89 c7             	mov    rdi,rax
    41cf:	e8 0c e2 ff ff       	call   23e0 <fputs@plt>
    41d4:	48 8b 85 88 fe ff ff 	mov    rax,QWORD PTR [rbp-0x178]
    41db:	48 89 c7             	mov    rdi,rax
    41de:	e8 cd e1 ff ff       	call   23b0 <fclose@plt>
    41e3:	48 8b 85 f8 fd ff ff 	mov    rax,QWORD PTR [rbp-0x208]
    41ea:	48 89 c7             	mov    rdi,rax
    41ed:	e8 3e e1 ff ff       	call   2330 <free@plt>
    41f2:	e9 c7 07 00 00       	jmp    49be <TEST_permutation_t_float_trans____1+0x120f>
    41f7:	8b 85 ec fd ff ff    	mov    eax,DWORD PTR [rbp-0x214]
    41fd:	48 98                	cdqe   
    41ff:	48 8b 95 08 fe ff ff 	mov    rdx,QWORD PTR [rbp-0x1f8]
    4206:	48 8b 12             	mov    rdx,QWORD PTR [rdx]
    4209:	48 89 d1             	mov    rcx,rdx
    420c:	48 8d 15 0d a1 00 00 	lea    rdx,[rip+0xa10d]        # e320 <__func__.3>
    4213:	48 89 c6             	mov    rsi,rax
    4216:	48 89 cf             	mov    rdi,rcx
    4219:	e8 62 e1 ff ff       	call   2380 <expected_EQ_name_TYPE_L_INT@plt>
    421e:	84 c0                	test   al,al
    4220:	0f 84 87 02 00 00    	je     44ad <TEST_permutation_t_float_trans____1+0xcfe>
    4226:	48 8d 95 f0 fd ff ff 	lea    rdx,[rbp-0x210]
    422d:	48 8d 85 f8 fd ff ff 	lea    rax,[rbp-0x208]
    4234:	48 89 d6             	mov    rsi,rdx
    4237:	48 89 c7             	mov    rdi,rax
    423a:	e8 11 e1 ff ff       	call   2350 <open_memstream@plt>
    423f:	48 89 85 58 fe ff ff 	mov    QWORD PTR [rbp-0x1a8],rax
    4246:	48 83 bd 58 fe ff ff 	cmp    QWORD PTR [rbp-0x1a8],0x0
    424d:	00 
    424e:	75 38                	jne    4288 <TEST_permutation_t_float_trans____1+0xad9>
    4250:	48 8b 05 a9 ce 00 00 	mov    rax,QWORD PTR [rip+0xcea9]        # 11100 <stderr@GLIBC_2.2.5>
    4257:	4c 8d 05 c2 a0 00 00 	lea    r8,[rip+0xa0c2]        # e320 <__func__.3>
    425e:	b9 25 00 00 00       	mov    ecx,0x25
    4263:	48 8d 15 da 9d 00 00 	lea    rdx,[rip+0x9dda]        # e044 <_IO_stdin_used+0x44>
    426a:	48 8d 35 df 9d 00 00 	lea    rsi,[rip+0x9ddf]        # e050 <_IO_stdin_used+0x50>
    4271:	48 89 c7             	mov    rdi,rax
    4274:	b8 00 00 00 00       	mov    eax,0x0
    4279:	e8 e2 e1 ff ff       	call   2460 <fprintf@plt>
    427e:	bf 00 00 00 00       	mov    edi,0x0
    4283:	e8 98 e2 ff ff       	call   2520 <exit@plt>
    4288:	8b 05 12 ce 00 00    	mov    eax,DWORD PTR [rip+0xce12]        # 110a0 <k_DEFAULT@@Base>
    428e:	48 98                	cdqe   
    4290:	48 8d 14 c5 00 00 00 	lea    rdx,[rax*8+0x0]
    4297:	00 
    4298:	48 8d 05 21 ce 00 00 	lea    rax,[rip+0xce21]        # 110c0 <colors_f@@Base>
    429f:	48 8b 34 02          	mov    rsi,QWORD PTR [rdx+rax*1]
    42a3:	8b 05 d7 cd 00 00    	mov    eax,DWORD PTR [rip+0xcdd7]        # 11080 <hk_TR@@Base>
    42a9:	48 98                	cdqe   
    42ab:	48 8d 14 c5 00 00 00 	lea    rdx,[rax*8+0x0]
    42b2:	00 
    42b3:	48 8d 05 86 cd 00 00 	lea    rax,[rip+0xcd86]        # 11040 <tab_hk_f@@Base>
    42ba:	48 8b 0c 02          	mov    rcx,QWORD PTR [rdx+rax*1]
    42be:	8b 05 2c ce 00 00    	mov    eax,DWORD PTR [rip+0xce2c]        # 110f0 <k_GREEN@@Base>
    42c4:	48 98                	cdqe   
    42c6:	48 8d 14 c5 00 00 00 	lea    rdx,[rax*8+0x0]
    42cd:	00 
    42ce:	48 8d 05 eb cd 00 00 	lea    rax,[rip+0xcdeb]        # 110c0 <colors_f@@Base>
    42d5:	48 8b 14 02          	mov    rdx,QWORD PTR [rdx+rax*1]
    42d9:	48 8b 85 58 fe ff ff 	mov    rax,QWORD PTR [rbp-0x1a8]
    42e0:	4c 8d 0d 39 a0 00 00 	lea    r9,[rip+0xa039]        # e320 <__func__.3>
    42e7:	49 89 f0             	mov    r8,rsi
    42ea:	48 8d 35 97 9d 00 00 	lea    rsi,[rip+0x9d97]        # e088 <_IO_stdin_used+0x88>
    42f1:	48 89 c7             	mov    rdi,rax
    42f4:	b8 00 00 00 00       	mov    eax,0x0
    42f9:	e8 62 e1 ff ff       	call   2460 <fprintf@plt>
    42fe:	48 8b 85 58 fe ff ff 	mov    rax,QWORD PTR [rbp-0x1a8]
    4305:	48 89 c7             	mov    rdi,rax
    4308:	e8 83 e1 ff ff       	call   2490 <fflush@plt>
    430d:	0f b6 05 7c cd 00 00 	movzx  eax,BYTE PTR [rip+0xcd7c]        # 11090 <is_parallel_nb@@Base>
    4314:	84 c0                	test   al,al
    4316:	0f 84 01 01 00 00    	je     441d <TEST_permutation_t_float_trans____1+0xc6e>
    431c:	e8 2f e1 ff ff       	call   2450 <id_of_thread_executed@plt>
    4321:	48 89 85 68 fe ff ff 	mov    QWORD PTR [rbp-0x198],rax
    4328:	0f b6 05 f1 cc 00 00 	movzx  eax,BYTE PTR [rip+0xccf1]        # 11020 <log_parallel@@Base>
    432f:	84 c0                	test   al,al
    4331:	74 76                	je     43a9 <TEST_permutation_t_float_trans____1+0xbfa>
    4333:	48 8b 85 f8 fd ff ff 	mov    rax,QWORD PTR [rbp-0x208]
    433a:	48 8b 15 e7 cc 00 00 	mov    rdx,QWORD PTR [rip+0xcce7]        # 11028 <stdout@GLIBC_2.2.5>
    4341:	48 89 d6             	mov    rsi,rdx
    4344:	48 89 c7             	mov    rdi,rax
    4347:	e8 94 e0 ff ff       	call   23e0 <fputs@plt>
    434c:	48 83 bd 68 fe ff ff 	cmp    QWORD PTR [rbp-0x198],0x0
    4353:	00 
    4354:	0f 88 30 01 00 00    	js     448a <TEST_permutation_t_float_trans____1+0xcdb>
    435a:	48 8b 85 f8 fd ff ff 	mov    rax,QWORD PTR [rbp-0x208]
    4361:	48 8b 0d c8 cc 00 00 	mov    rcx,QWORD PTR [rip+0xccc8]        # 11030 <f_ou_th@@Base>
    4368:	48 8b 95 68 fe ff ff 	mov    rdx,QWORD PTR [rbp-0x198]
    436f:	48 c1 e2 03          	shl    rdx,0x3
    4373:	48 01 ca             	add    rdx,rcx
    4376:	48 8b 12             	mov    rdx,QWORD PTR [rdx]
    4379:	48 89 d6             	mov    rsi,rdx
    437c:	48 89 c7             	mov    rdi,rax
    437f:	e8 5c e0 ff ff       	call   23e0 <fputs@plt>
    4384:	48 8b 15 a5 cc 00 00 	mov    rdx,QWORD PTR [rip+0xcca5]        # 11030 <f_ou_th@@Base>
    438b:	48 8b 85 68 fe ff ff 	mov    rax,QWORD PTR [rbp-0x198]
    4392:	48 c1 e0 03          	shl    rax,0x3
    4396:	48 01 d0             	add    rax,rdx
    4399:	48 8b 00             	mov    rax,QWORD PTR [rax]
    439c:	48 89 c7             	mov    rdi,rax
    439f:	e8 ec e0 ff ff       	call   2490 <fflush@plt>
    43a4:	e9 e1 00 00 00       	jmp    448a <TEST_permutation_t_float_trans____1+0xcdb>
    43a9:	48 83 bd 68 fe ff ff 	cmp    QWORD PTR [rbp-0x198],0x0
    43b0:	00 
    43b1:	78 4f                	js     4402 <TEST_permutation_t_float_trans____1+0xc53>
    43b3:	48 8b 85 f8 fd ff ff 	mov    rax,QWORD PTR [rbp-0x208]
    43ba:	48 8b 0d 6f cc 00 00 	mov    rcx,QWORD PTR [rip+0xcc6f]        # 11030 <f_ou_th@@Base>
    43c1:	48 8b 95 68 fe ff ff 	mov    rdx,QWORD PTR [rbp-0x198]
    43c8:	48 c1 e2 03          	shl    rdx,0x3
    43cc:	48 01 ca             	add    rdx,rcx
    43cf:	48 8b 12             	mov    rdx,QWORD PTR [rdx]
    43d2:	48 89 d6             	mov    rsi,rdx
    43d5:	48 89 c7             	mov    rdi,rax
    43d8:	e8 03 e0 ff ff       	call   23e0 <fputs@plt>
    43dd:	48 8b 15 4c cc 00 00 	mov    rdx,QWORD PTR [rip+0xcc4c]        # 11030 <f_ou_th@@Base>
    43e4:	48 8b 85 68 fe ff ff 	mov    rax,QWORD PTR [rbp-0x198]
    43eb:	48 c1 e0 03          	shl    rax,0x3
    43ef:	48 01 d0             	add    rax,rdx
    43f2:	48 8b 00             	mov    rax,QWORD PTR [rax]
    43f5:	48 89 c7             	mov    rdi,rax
    43f8:	e8 93 e0 ff ff       	call   2490 <fflush@plt>
    43fd:	e9 88 00 00 00       	jmp    448a <TEST_permutation_t_float_trans____1+0xcdb>
    4402:	48 8b 85 f8 fd ff ff 	mov    rax,QWORD PTR [rbp-0x208]
    4409:	48 8b 15 18 cc 00 00 	mov    rdx,QWORD PTR [rip+0xcc18]        # 11028 <stdout@GLIBC_2.2.5>
    4410:	48 89 d6             	mov    rsi,rdx
    4413:	48 89 c7             	mov    rdi,rax
    4416:	e8 c5 df ff ff       	call   23e0 <fputs@plt>
    441b:	eb 6d                	jmp    448a <TEST_permutation_t_float_trans____1+0xcdb>
    441d:	48 8b 05 14 cc 00 00 	mov    rax,QWORD PTR [rip+0xcc14]        # 11038 <savelog@@Base>
    4424:	48 85 c0             	test   rax,rax
    4427:	74 48                	je     4471 <TEST_permutation_t_float_trans____1+0xcc2>
    4429:	48 8b 05 08 cc 00 00 	mov    rax,QWORD PTR [rip+0xcc08]        # 11038 <savelog@@Base>
    4430:	48 8d 15 48 9c 00 00 	lea    rdx,[rip+0x9c48]        # e07f <_IO_stdin_used+0x7f>
    4437:	48 89 d6             	mov    rsi,rdx
    443a:	48 89 c7             	mov    rdi,rax
    443d:	e8 be e0 ff ff       	call   2500 <fopen@plt>
    4442:	48 89 85 60 fe ff ff 	mov    QWORD PTR [rbp-0x1a0],rax
    4449:	48 8b 85 f8 fd ff ff 	mov    rax,QWORD PTR [rbp-0x208]
    4450:	48 8b 95 60 fe ff ff 	mov    rdx,QWORD PTR [rbp-0x1a0]
    4457:	48 89 d6             	mov    rsi,rdx
    445a:	48 89 c7             	mov    rdi,rax
    445d:	e8 7e df ff ff       	call   23e0 <fputs@plt>
    4462:	48 8b 85 60 fe ff ff 	mov    rax,QWORD PTR [rbp-0x1a0]
    4469:	48 89 c7             	mov    rdi,rax
    446c:	e8 3f df ff ff       	call   23b0 <fclose@plt>
    4471:	48 8b 85 f8 fd ff ff 	mov    rax,QWORD PTR [rbp-0x208]
    4478:	48 8b 15 a9 cb 00 00 	mov    rdx,QWORD PTR [rip+0xcba9]        # 11028 <stdout@GLIBC_2.2.5>
    447f:	48 89 d6             	mov    rsi,rdx
    4482:	48 89 c7             	mov    rdi,rax
    4485:	e8 56 df ff ff       	call   23e0 <fputs@plt>
    448a:	48 8b 85 58 fe ff ff 	mov    rax,QWORD PTR [rbp-0x1a8]
    4491:	48 89 c7             	mov    rdi,rax
    4494:	e8 17 df ff ff       	call   23b0 <fclose@plt>
    4499:	48 8b 85 f8 fd ff ff 	mov    rax,QWORD PTR [rbp-0x208]
    44a0:	48 89 c7             	mov    rdi,rax
    44a3:	e8 88 de ff ff       	call   2330 <free@plt>
    44a8:	e9 11 05 00 00       	jmp    49be <TEST_permutation_t_float_trans____1+0x120f>
    44ad:	48 8d 95 f0 fd ff ff 	lea    rdx,[rbp-0x210]
    44b4:	48 8d 85 f8 fd ff ff 	lea    rax,[rbp-0x208]
    44bb:	48 89 d6             	mov    rsi,rdx
    44be:	48 89 c7             	mov    rdi,rax
    44c1:	e8 8a de ff ff       	call   2350 <open_memstream@plt>
    44c6:	48 89 85 28 fe ff ff 	mov    QWORD PTR [rbp-0x1d8],rax
    44cd:	48 83 bd 28 fe ff ff 	cmp    QWORD PTR [rbp-0x1d8],0x0
    44d4:	00 
    44d5:	75 38                	jne    450f <TEST_permutation_t_float_trans____1+0xd60>
    44d7:	48 8b 05 22 cc 00 00 	mov    rax,QWORD PTR [rip+0xcc22]        # 11100 <stderr@GLIBC_2.2.5>
    44de:	4c 8d 05 3b 9e 00 00 	lea    r8,[rip+0x9e3b]        # e320 <__func__.3>
    44e5:	b9 25 00 00 00       	mov    ecx,0x25
    44ea:	48 8d 15 53 9b 00 00 	lea    rdx,[rip+0x9b53]        # e044 <_IO_stdin_used+0x44>
    44f1:	48 8d 35 58 9b 00 00 	lea    rsi,[rip+0x9b58]        # e050 <_IO_stdin_used+0x50>
    44f8:	48 89 c7             	mov    rdi,rax
    44fb:	b8 00 00 00 00       	mov    eax,0x0
    4500:	e8 5b df ff ff       	call   2460 <fprintf@plt>
    4505:	bf 00 00 00 00       	mov    edi,0x0
    450a:	e8 11 e0 ff ff       	call   2520 <exit@plt>
    450f:	8b 85 ec fd ff ff    	mov    eax,DWORD PTR [rbp-0x214]
    4515:	48 98                	cdqe   
    4517:	48 89 c7             	mov    rdi,rax
    451a:	e8 11 e0 ff ff       	call   2530 <TYPE_L_INT_TO_STR@plt>
    451f:	48 89 c3             	mov    rbx,rax
    4522:	48 8b 85 08 fe ff ff 	mov    rax,QWORD PTR [rbp-0x1f8]
    4529:	48 8b 00             	mov    rax,QWORD PTR [rax]
    452c:	48 89 c7             	mov    rdi,rax
    452f:	e8 fc df ff ff       	call   2530 <TYPE_L_INT_TO_STR@plt>
    4534:	48 89 c2             	mov    rdx,rax
    4537:	48 8b 85 28 fe ff ff 	mov    rax,QWORD PTR [rbp-0x1d8]
    453e:	53                   	push   rbx
    453f:	48 8d 0d 0f 9c 00 00 	lea    rcx,[rip+0x9c0f]        # e155 <_IO_stdin_used+0x155>
    4546:	51                   	push   rcx
    4547:	52                   	push   rdx
    4548:	48 8d 15 59 9b 00 00 	lea    rdx,[rip+0x9b59]        # e0a8 <_IO_stdin_used+0xa8>
    454f:	52                   	push   rdx
    4550:	48 8d 15 fe 9b 00 00 	lea    rdx,[rip+0x9bfe]        # e155 <_IO_stdin_used+0x155>
    4557:	52                   	push   rdx
    4558:	48 8d 15 a5 9b 00 00 	lea    rdx,[rip+0x9ba5]        # e104 <_IO_stdin_used+0x104>
    455f:	52                   	push   rdx
    4560:	4c 8d 0d 41 9b 00 00 	lea    r9,[rip+0x9b41]        # e0a8 <_IO_stdin_used+0xa8>
    4567:	4c 8d 05 b2 9d 00 00 	lea    r8,[rip+0x9db2]        # e320 <__func__.3>
    456e:	b9 25 00 00 00       	mov    ecx,0x25
    4573:	48 8d 15 ca 9a 00 00 	lea    rdx,[rip+0x9aca]        # e044 <_IO_stdin_used+0x44>
    457a:	48 8d 35 2f 9b 00 00 	lea    rsi,[rip+0x9b2f]        # e0b0 <_IO_stdin_used+0xb0>
    4581:	48 89 c7             	mov    rdi,rax
    4584:	b8 00 00 00 00       	mov    eax,0x0
    4589:	e8 d2 de ff ff       	call   2460 <fprintf@plt>
    458e:	48 83 c4 30          	add    rsp,0x30
    4592:	48 8b 85 28 fe ff ff 	mov    rax,QWORD PTR [rbp-0x1d8]
    4599:	48 89 c7             	mov    rdi,rax
    459c:	e8 ef de ff ff       	call   2490 <fflush@plt>
    45a1:	0f b6 05 e8 ca 00 00 	movzx  eax,BYTE PTR [rip+0xcae8]        # 11090 <is_parallel_nb@@Base>
    45a8:	84 c0                	test   al,al
    45aa:	0f 84 01 01 00 00    	je     46b1 <TEST_permutation_t_float_trans____1+0xf02>
    45b0:	e8 9b de ff ff       	call   2450 <id_of_thread_executed@plt>
    45b5:	48 89 85 38 fe ff ff 	mov    QWORD PTR [rbp-0x1c8],rax
    45bc:	0f b6 05 5d ca 00 00 	movzx  eax,BYTE PTR [rip+0xca5d]        # 11020 <log_parallel@@Base>
    45c3:	84 c0                	test   al,al
    45c5:	74 76                	je     463d <TEST_permutation_t_float_trans____1+0xe8e>
    45c7:	48 8b 85 f8 fd ff ff 	mov    rax,QWORD PTR [rbp-0x208]
    45ce:	48 8b 15 53 ca 00 00 	mov    rdx,QWORD PTR [rip+0xca53]        # 11028 <stdout@GLIBC_2.2.5>
    45d5:	48 89 d6             	mov    rsi,rdx
    45d8:	48 89 c7             	mov    rdi,rax
    45db:	e8 00 de ff ff       	call   23e0 <fputs@plt>
    45e0:	48 83 bd 38 fe ff ff 	cmp    QWORD PTR [rbp-0x1c8],0x0
    45e7:	00 
    45e8:	0f 88 30 01 00 00    	js     471e <TEST_permutation_t_float_trans____1+0xf6f>
    45ee:	48 8b 85 f8 fd ff ff 	mov    rax,QWORD PTR [rbp-0x208]
    45f5:	48 8b 0d 34 ca 00 00 	mov    rcx,QWORD PTR [rip+0xca34]        # 11030 <f_ou_th@@Base>
    45fc:	48 8b 95 38 fe ff ff 	mov    rdx,QWORD PTR [rbp-0x1c8]
    4603:	48 c1 e2 03          	shl    rdx,0x3
    4607:	48 01 ca             	add    rdx,rcx
    460a:	48 8b 12             	mov    rdx,QWORD PTR [rdx]
    460d:	48 89 d6             	mov    rsi,rdx
    4610:	48 89 c7             	mov    rdi,rax
    4613:	e8 c8 dd ff ff       	call   23e0 <fputs@plt>
    4618:	48 8b 15 11 ca 00 00 	mov    rdx,QWORD PTR [rip+0xca11]        # 11030 <f_ou_th@@Base>
    461f:	48 8b 85 38 fe ff ff 	mov    rax,QWORD PTR [rbp-0x1c8]
    4626:	48 c1 e0 03          	shl    rax,0x3
    462a:	48 01 d0             	add    rax,rdx
    462d:	48 8b 00             	mov    rax,QWORD PTR [rax]
    4630:	48 89 c7             	mov    rdi,rax
    4633:	e8 58 de ff ff       	call   2490 <fflush@plt>
    4638:	e9 e1 00 00 00       	jmp    471e <TEST_permutation_t_float_trans____1+0xf6f>
    463d:	48 83 bd 38 fe ff ff 	cmp    QWORD PTR [rbp-0x1c8],0x0
    4644:	00 
    4645:	78 4f                	js     4696 <TEST_permutation_t_float_trans____1+0xee7>
    4647:	48 8b 85 f8 fd ff ff 	mov    rax,QWORD PTR [rbp-0x208]
    464e:	48 8b 0d db c9 00 00 	mov    rcx,QWORD PTR [rip+0xc9db]        # 11030 <f_ou_th@@Base>
    4655:	48 8b 95 38 fe ff ff 	mov    rdx,QWORD PTR [rbp-0x1c8]
    465c:	48 c1 e2 03          	shl    rdx,0x3
    4660:	48 01 ca             	add    rdx,rcx
    4663:	48 8b 12             	mov    rdx,QWORD PTR [rdx]
    4666:	48 89 d6             	mov    rsi,rdx
    4669:	48 89 c7             	mov    rdi,rax
    466c:	e8 6f dd ff ff       	call   23e0 <fputs@plt>
    4671:	48 8b 15 b8 c9 00 00 	mov    rdx,QWORD PTR [rip+0xc9b8]        # 11030 <f_ou_th@@Base>
    4678:	48 8b 85 38 fe ff ff 	mov    rax,QWORD PTR [rbp-0x1c8]
    467f:	48 c1 e0 03          	shl    rax,0x3
    4683:	48 01 d0             	add    rax,rdx
    4686:	48 8b 00             	mov    rax,QWORD PTR [rax]
    4689:	48 89 c7             	mov    rdi,rax
    468c:	e8 ff dd ff ff       	call   2490 <fflush@plt>
    4691:	e9 88 00 00 00       	jmp    471e <TEST_permutation_t_float_trans____1+0xf6f>
    4696:	48 8b 85 f8 fd ff ff 	mov    rax,QWORD PTR [rbp-0x208]
    469d:	48 8b 15 84 c9 00 00 	mov    rdx,QWORD PTR [rip+0xc984]        # 11028 <stdout@GLIBC_2.2.5>
    46a4:	48 89 d6             	mov    rsi,rdx
    46a7:	48 89 c7             	mov    rdi,rax
    46aa:	e8 31 dd ff ff       	call   23e0 <fputs@plt>
    46af:	eb 6d                	jmp    471e <TEST_permutation_t_float_trans____1+0xf6f>
    46b1:	48 8b 05 80 c9 00 00 	mov    rax,QWORD PTR [rip+0xc980]        # 11038 <savelog@@Base>
    46b8:	48 85 c0             	test   rax,rax
    46bb:	74 48                	je     4705 <TEST_permutation_t_float_trans____1+0xf56>
    46bd:	48 8b 05 74 c9 00 00 	mov    rax,QWORD PTR [rip+0xc974]        # 11038 <savelog@@Base>
    46c4:	48 8d 15 b4 99 00 00 	lea    rdx,[rip+0x99b4]        # e07f <_IO_stdin_used+0x7f>
    46cb:	48 89 d6             	mov    rsi,rdx
    46ce:	48 89 c7             	mov    rdi,rax
    46d1:	e8 2a de ff ff       	call   2500 <fopen@plt>
    46d6:	48 89 85 30 fe ff ff 	mov    QWORD PTR [rbp-0x1d0],rax
    46dd:	48 8b 85 f8 fd ff ff 	mov    rax,QWORD PTR [rbp-0x208]
    46e4:	48 8b 95 30 fe ff ff 	mov    rdx,QWORD PTR [rbp-0x1d0]
    46eb:	48 89 d6             	mov    rsi,rdx
    46ee:	48 89 c7             	mov    rdi,rax
    46f1:	e8 ea dc ff ff       	call   23e0 <fputs@plt>
    46f6:	48 8b 85 30 fe ff ff 	mov    rax,QWORD PTR [rbp-0x1d0]
    46fd:	48 89 c7             	mov    rdi,rax
    4700:	e8 ab dc ff ff       	call   23b0 <fclose@plt>
    4705:	48 8b 85 f8 fd ff ff 	mov    rax,QWORD PTR [rbp-0x208]
    470c:	48 8b 15 15 c9 00 00 	mov    rdx,QWORD PTR [rip+0xc915]        # 11028 <stdout@GLIBC_2.2.5>
    4713:	48 89 d6             	mov    rsi,rdx
    4716:	48 89 c7             	mov    rdi,rax
    4719:	e8 c2 dc ff ff       	call   23e0 <fputs@plt>
    471e:	48 8b 85 28 fe ff ff 	mov    rax,QWORD PTR [rbp-0x1d8]
    4725:	48 89 c7             	mov    rdi,rax
    4728:	e8 83 dc ff ff       	call   23b0 <fclose@plt>
    472d:	48 8b 85 f8 fd ff ff 	mov    rax,QWORD PTR [rbp-0x208]
    4734:	48 89 c7             	mov    rdi,rax
    4737:	e8 f4 db ff ff       	call   2330 <free@plt>
    473c:	48 8d 95 f0 fd ff ff 	lea    rdx,[rbp-0x210]
    4743:	48 8d 85 f8 fd ff ff 	lea    rax,[rbp-0x208]
    474a:	48 89 d6             	mov    rsi,rdx
    474d:	48 89 c7             	mov    rdi,rax
    4750:	e8 fb db ff ff       	call   2350 <open_memstream@plt>
    4755:	48 89 85 40 fe ff ff 	mov    QWORD PTR [rbp-0x1c0],rax
    475c:	48 83 bd 40 fe ff ff 	cmp    QWORD PTR [rbp-0x1c0],0x0
    4763:	00 
    4764:	75 38                	jne    479e <TEST_permutation_t_float_trans____1+0xfef>
    4766:	48 8b 05 93 c9 00 00 	mov    rax,QWORD PTR [rip+0xc993]        # 11100 <stderr@GLIBC_2.2.5>
    476d:	4c 8d 05 ac 9b 00 00 	lea    r8,[rip+0x9bac]        # e320 <__func__.3>
    4774:	b9 25 00 00 00       	mov    ecx,0x25
    4779:	48 8d 15 c4 98 00 00 	lea    rdx,[rip+0x98c4]        # e044 <_IO_stdin_used+0x44>
    4780:	48 8d 35 c9 98 00 00 	lea    rsi,[rip+0x98c9]        # e050 <_IO_stdin_used+0x50>
    4787:	48 89 c7             	mov    rdi,rax
    478a:	b8 00 00 00 00       	mov    eax,0x0
    478f:	e8 cc dc ff ff       	call   2460 <fprintf@plt>
    4794:	bf 00 00 00 00       	mov    edi,0x0
    4799:	e8 82 dd ff ff       	call   2520 <exit@plt>
    479e:	8b 05 fc c8 00 00    	mov    eax,DWORD PTR [rip+0xc8fc]        # 110a0 <k_DEFAULT@@Base>
    47a4:	48 98                	cdqe   
    47a6:	48 8d 14 c5 00 00 00 	lea    rdx,[rax*8+0x0]
    47ad:	00 
    47ae:	48 8d 05 0b c9 00 00 	lea    rax,[rip+0xc90b]        # 110c0 <colors_f@@Base>
    47b5:	48 8b 34 02          	mov    rsi,QWORD PTR [rdx+rax*1]
    47b9:	8b 05 c1 c8 00 00    	mov    eax,DWORD PTR [rip+0xc8c1]        # 11080 <hk_TR@@Base>
    47bf:	48 98                	cdqe   
    47c1:	48 8d 14 c5 00 00 00 	lea    rdx,[rax*8+0x0]
    47c8:	00 
    47c9:	48 8d 05 70 c8 00 00 	lea    rax,[rip+0xc870]        # 11040 <tab_hk_f@@Base>
    47d0:	48 8b 0c 02          	mov    rcx,QWORD PTR [rdx+rax*1]
    47d4:	8b 05 aa c8 00 00    	mov    eax,DWORD PTR [rip+0xc8aa]        # 11084 <k_RED@@Base>
    47da:	48 98                	cdqe   
    47dc:	48 8d 14 c5 00 00 00 	lea    rdx,[rax*8+0x0]
    47e3:	00 
    47e4:	48 8d 05 d5 c8 00 00 	lea    rax,[rip+0xc8d5]        # 110c0 <colors_f@@Base>
    47eb:	48 8b 14 02          	mov    rdx,QWORD PTR [rdx+rax*1]
    47ef:	48 8b 85 40 fe ff ff 	mov    rax,QWORD PTR [rbp-0x1c0]
    47f6:	4c 8d 0d 23 9b 00 00 	lea    r9,[rip+0x9b23]        # e320 <__func__.3>
    47fd:	49 89 f0             	mov    r8,rsi
    4800:	48 8d 35 01 99 00 00 	lea    rsi,[rip+0x9901]        # e108 <_IO_stdin_used+0x108>
    4807:	48 89 c7             	mov    rdi,rax
    480a:	b8 00 00 00 00       	mov    eax,0x0
    480f:	e8 4c dc ff ff       	call   2460 <fprintf@plt>
    4814:	48 8b 85 40 fe ff ff 	mov    rax,QWORD PTR [rbp-0x1c0]
    481b:	48 89 c7             	mov    rdi,rax
    481e:	e8 6d dc ff ff       	call   2490 <fflush@plt>
    4823:	0f b6 05 66 c8 00 00 	movzx  eax,BYTE PTR [rip+0xc866]        # 11090 <is_parallel_nb@@Base>
    482a:	84 c0                	test   al,al
    482c:	0f 84 01 01 00 00    	je     4933 <TEST_permutation_t_float_trans____1+0x1184>
    4832:	e8 19 dc ff ff       	call   2450 <id_of_thread_executed@plt>
    4837:	48 89 85 50 fe ff ff 	mov    QWORD PTR [rbp-0x1b0],rax
    483e:	0f b6 05 db c7 00 00 	movzx  eax,BYTE PTR [rip+0xc7db]        # 11020 <log_parallel@@Base>
    4845:	84 c0                	test   al,al
    4847:	74 76                	je     48bf <TEST_permutation_t_float_trans____1+0x1110>
    4849:	48 8b 85 f8 fd ff ff 	mov    rax,QWORD PTR [rbp-0x208]
    4850:	48 8b 15 d1 c7 00 00 	mov    rdx,QWORD PTR [rip+0xc7d1]        # 11028 <stdout@GLIBC_2.2.5>
    4857:	48 89 d6             	mov    rsi,rdx
    485a:	48 89 c7             	mov    rdi,rax
    485d:	e8 7e db ff ff       	call   23e0 <fputs@plt>
    4862:	48 83 bd 50 fe ff ff 	cmp    QWORD PTR [rbp-0x1b0],0x0
    4869:	00 
    486a:	0f 88 30 01 00 00    	js     49a0 <TEST_permutation_t_float_trans____1+0x11f1>
    4870:	48 8b 85 f8 fd ff ff 	mov    rax,QWORD PTR [rbp-0x208]
    4877:	48 8b 0d b2 c7 00 00 	mov    rcx,QWORD PTR [rip+0xc7b2]        # 11030 <f_ou_th@@Base>
    487e:	48 8b 95 50 fe ff ff 	mov    rdx,QWORD PTR [rbp-0x1b0]
    4885:	48 c1 e2 03          	shl    rdx,0x3
    4889:	48 01 ca             	add    rdx,rcx
    488c:	48 8b 12             	mov    rdx,QWORD PTR [rdx]
    488f:	48 89 d6             	mov    rsi,rdx
    4892:	48 89 c7             	mov    rdi,rax
    4895:	e8 46 db ff ff       	call   23e0 <fputs@plt>
    489a:	48 8b 15 8f c7 00 00 	mov    rdx,QWORD PTR [rip+0xc78f]        # 11030 <f_ou_th@@Base>
    48a1:	48 8b 85 50 fe ff ff 	mov    rax,QWORD PTR [rbp-0x1b0]
    48a8:	48 c1 e0 03          	shl    rax,0x3
    48ac:	48 01 d0             	add    rax,rdx
    48af:	48 8b 00             	mov    rax,QWORD PTR [rax]
    48b2:	48 89 c7             	mov    rdi,rax
    48b5:	e8 d6 db ff ff       	call   2490 <fflush@plt>
    48ba:	e9 e1 00 00 00       	jmp    49a0 <TEST_permutation_t_float_trans____1+0x11f1>
    48bf:	48 83 bd 50 fe ff ff 	cmp    QWORD PTR [rbp-0x1b0],0x0
    48c6:	00 
    48c7:	78 4f                	js     4918 <TEST_permutation_t_float_trans____1+0x1169>
    48c9:	48 8b 85 f8 fd ff ff 	mov    rax,QWORD PTR [rbp-0x208]
    48d0:	48 8b 0d 59 c7 00 00 	mov    rcx,QWORD PTR [rip+0xc759]        # 11030 <f_ou_th@@Base>
    48d7:	48 8b 95 50 fe ff ff 	mov    rdx,QWORD PTR [rbp-0x1b0]
    48de:	48 c1 e2 03          	shl    rdx,0x3
    48e2:	48 01 ca             	add    rdx,rcx
    48e5:	48 8b 12             	mov    rdx,QWORD PTR [rdx]
    48e8:	48 89 d6             	mov    rsi,rdx
    48eb:	48 89 c7             	mov    rdi,rax
    48ee:	e8 ed da ff ff       	call   23e0 <fputs@plt>
    48f3:	48 8b 15 36 c7 00 00 	mov    rdx,QWORD PTR [rip+0xc736]        # 11030 <f_ou_th@@Base>
    48fa:	48 8b 85 50 fe ff ff 	mov    rax,QWORD PTR [rbp-0x1b0]
    4901:	48 c1 e0 03          	shl    rax,0x3
    4905:	48 01 d0             	add    rax,rdx
    4908:	48 8b 00             	mov    rax,QWORD PTR [rax]
    490b:	48 89 c7             	mov    rdi,rax
    490e:	e8 7d db ff ff       	call   2490 <fflush@plt>
    4913:	e9 88 00 00 00       	jmp    49a0 <TEST_permutation_t_float_trans____1+0x11f1>
    4918:	48 8b 85 f8 fd ff ff 	mov    rax,QWORD PTR [rbp-0x208]
    491f:	48 8b 15 02 c7 00 00 	mov    rdx,QWORD PTR [rip+0xc702]        # 11028 <stdout@GLIBC_2.2.5>
    4926:	48 89 d6             	mov    rsi,rdx
    4929:	48 89 c7             	mov    rdi,rax
    492c:	e8 af da ff ff       	call   23e0 <fputs@plt>
    4931:	eb 6d                	jmp    49a0 <TEST_permutation_t_float_trans____1+0x11f1>
    4933:	48 8b 05 fe c6 00 00 	mov    rax,QWORD PTR [rip+0xc6fe]        # 11038 <savelog@@Base>
    493a:	48 85 c0             	test   rax,rax
    493d:	74 48                	je     4987 <TEST_permutation_t_float_trans____1+0x11d8>
    493f:	48 8b 05 f2 c6 00 00 	mov    rax,QWORD PTR [rip+0xc6f2]        # 11038 <savelog@@Base>
    4946:	48 8d 15 32 97 00 00 	lea    rdx,[rip+0x9732]        # e07f <_IO_stdin_used+0x7f>
    494d:	48 89 d6             	mov    rsi,rdx
    4950:	48 89 c7             	mov    rdi,rax
    4953:	e8 a8 db ff ff       	call   2500 <fopen@plt>
    4958:	48 89 85 48 fe ff ff 	mov    QWORD PTR [rbp-0x1b8],rax
    495f:	48 8b 85 f8 fd ff ff 	mov    rax,QWORD PTR [rbp-0x208]
    4966:	48 8b 95 48 fe ff ff 	mov    rdx,QWORD PTR [rbp-0x1b8]
    496d:	48 89 d6             	mov    rsi,rdx
    4970:	48 89 c7             	mov    rdi,rax
    4973:	e8 68 da ff ff       	call   23e0 <fputs@plt>
    4978:	48 8b 85 48 fe ff ff 	mov    rax,QWORD PTR [rbp-0x1b8]
    497f:	48 89 c7             	mov    rdi,rax
    4982:	e8 29 da ff ff       	call   23b0 <fclose@plt>
    4987:	48 8b 85 f8 fd ff ff 	mov    rax,QWORD PTR [rbp-0x208]
    498e:	48 8b 15 93 c6 00 00 	mov    rdx,QWORD PTR [rip+0xc693]        # 11028 <stdout@GLIBC_2.2.5>
    4995:	48 89 d6             	mov    rsi,rdx
    4998:	48 89 c7             	mov    rdi,rax
    499b:	e8 40 da ff ff       	call   23e0 <fputs@plt>
    49a0:	48 8b 85 40 fe ff ff 	mov    rax,QWORD PTR [rbp-0x1c0]
    49a7:	48 89 c7             	mov    rdi,rax
    49aa:	e8 01 da ff ff       	call   23b0 <fclose@plt>
    49af:	48 8b 85 f8 fd ff ff 	mov    rax,QWORD PTR [rbp-0x208]
    49b6:	48 89 c7             	mov    rdi,rax
    49b9:	e8 72 d9 ff ff       	call   2330 <free@plt>
    49be:	48 8b 85 08 fe ff ff 	mov    rax,QWORD PTR [rbp-0x1f8]
    49c5:	48 8b 40 10          	mov    rax,QWORD PTR [rax+0x10]
    49c9:	f3 0f 10 05 cb 99 00 	movss  xmm0,DWORD PTR [rip+0x99cb]        # e39c <__func__.0+0xc>
    49d0:	00 
    49d1:	f3 0f 11 00          	movss  DWORD PTR [rax],xmm0
    49d5:	48 8b 85 08 fe ff ff 	mov    rax,QWORD PTR [rbp-0x1f8]
    49dc:	48 8b 40 10          	mov    rax,QWORD PTR [rax+0x10]
    49e0:	48 83 c0 04          	add    rax,0x4
    49e4:	f3 0f 10 05 b4 99 00 	movss  xmm0,DWORD PTR [rip+0x99b4]        # e3a0 <__func__.0+0x10>
    49eb:	00 
    49ec:	f3 0f 11 00          	movss  DWORD PTR [rax],xmm0
    49f0:	48 8b 85 08 fe ff ff 	mov    rax,QWORD PTR [rbp-0x1f8]
    49f7:	48 8b 40 10          	mov    rax,QWORD PTR [rax+0x10]
    49fb:	48 83 c0 08          	add    rax,0x8
    49ff:	f3 0f 10 05 9d 99 00 	movss  xmm0,DWORD PTR [rip+0x999d]        # e3a4 <__func__.0+0x14>
    4a06:	00 
    4a07:	f3 0f 11 00          	movss  DWORD PTR [rax],xmm0
    4a0b:	48 8b 85 08 fe ff ff 	mov    rax,QWORD PTR [rbp-0x1f8]
    4a12:	48 8b 40 10          	mov    rax,QWORD PTR [rax+0x10]
    4a16:	48 83 c0 0c          	add    rax,0xc
    4a1a:	f3 0f 10 05 86 99 00 	movss  xmm0,DWORD PTR [rip+0x9986]        # e3a8 <__func__.0+0x18>
    4a21:	00 
    4a22:	f3 0f 11 00          	movss  DWORD PTR [rax],xmm0
    4a26:	48 8b 85 08 fe ff ff 	mov    rax,QWORD PTR [rbp-0x1f8]
    4a2d:	48 8b 40 10          	mov    rax,QWORD PTR [rax+0x10]
    4a31:	48 83 c0 10          	add    rax,0x10
    4a35:	f3 0f 10 05 6f 99 00 	movss  xmm0,DWORD PTR [rip+0x996f]        # e3ac <__func__.0+0x1c>
    4a3c:	00 
    4a3d:	f3 0f 11 00          	movss  DWORD PTR [rax],xmm0
    4a41:	48 8b 85 08 fe ff ff 	mov    rax,QWORD PTR [rbp-0x1f8]
    4a48:	48 8b 40 10          	mov    rax,QWORD PTR [rax+0x10]
    4a4c:	48 83 c0 14          	add    rax,0x14
    4a50:	f3 0f 10 05 54 99 00 	movss  xmm0,DWORD PTR [rip+0x9954]        # e3ac <__func__.0+0x1c>
    4a57:	00 
    4a58:	f3 0f 11 00          	movss  DWORD PTR [rax],xmm0
    4a5c:	48 8b 85 08 fe ff ff 	mov    rax,QWORD PTR [rbp-0x1f8]
    4a63:	48 89 c7             	mov    rdi,rax
    4a66:	e8 fe 78 00 00       	call   c369 <TRANSLATE_TO_SET_THEORIC_SIZE_T_TYPE_FLOAT>
    4a6b:	48 89 85 b8 fe ff ff 	mov    QWORD PTR [rbp-0x148],rax
    4a72:	48 c7 45 b0 00 00 00 	mov    QWORD PTR [rbp-0x50],0x0
    4a79:	00 
    4a7a:	48 c7 45 b8 02 00 00 	mov    QWORD PTR [rbp-0x48],0x2
    4a81:	00 
    4a82:	48 c7 45 c0 01 00 00 	mov    QWORD PTR [rbp-0x40],0x1
    4a89:	00 
    4a8a:	48 c7 45 c8 03 00 00 	mov    QWORD PTR [rbp-0x38],0x3
    4a91:	00 
    4a92:	48 c7 45 d0 04 00 00 	mov    QWORD PTR [rbp-0x30],0x4
    4a99:	00 
    4a9a:	48 c7 45 d8 04 00 00 	mov    QWORD PTR [rbp-0x28],0x4
    4aa1:	00 
    4aa2:	48 c7 85 00 fe ff ff 	mov    QWORD PTR [rbp-0x200],0x0
    4aa9:	00 00 00 00 
    4aad:	e9 a1 0f 00 00       	jmp    5a53 <TEST_permutation_t_float_trans____1+0x22a4>
    4ab2:	0f b6 05 d7 c5 00 00 	movzx  eax,BYTE PTR [rip+0xc5d7]        # 11090 <is_parallel_nb@@Base>
    4ab9:	83 f0 01             	xor    eax,0x1
    4abc:	84 c0                	test   al,al
    4abe:	0f 84 91 07 00 00    	je     5255 <TEST_permutation_t_float_trans____1+0x1aa6>
    4ac4:	48 8b 85 00 fe ff ff 	mov    rax,QWORD PTR [rbp-0x200]
    4acb:	48 8b 44 c5 b0       	mov    rax,QWORD PTR [rbp+rax*8-0x50]
    4ad0:	48 89 c2             	mov    rdx,rax
    4ad3:	48 8b 85 b8 fe ff ff 	mov    rax,QWORD PTR [rbp-0x148]
    4ada:	48 8b 48 10          	mov    rcx,QWORD PTR [rax+0x10]
    4ade:	48 8b 85 00 fe ff ff 	mov    rax,QWORD PTR [rbp-0x200]
    4ae5:	48 c1 e0 03          	shl    rax,0x3
    4ae9:	48 01 c8             	add    rax,rcx
    4aec:	48 8b 00             	mov    rax,QWORD PTR [rax]
    4aef:	48 89 d6             	mov    rsi,rdx
    4af2:	48 89 c7             	mov    rdi,rax
    4af5:	e8 06 d9 ff ff       	call   2400 <expected_EQ_TYPE_L_INT@plt>
    4afa:	84 c0                	test   al,al
    4afc:	0f 84 57 02 00 00    	je     4d59 <TEST_permutation_t_float_trans____1+0x15aa>
    4b02:	48 8d 95 f0 fd ff ff 	lea    rdx,[rbp-0x210]
    4b09:	48 8d 85 f8 fd ff ff 	lea    rax,[rbp-0x208]
    4b10:	48 89 d6             	mov    rsi,rdx
    4b13:	48 89 c7             	mov    rdi,rax
    4b16:	e8 35 d8 ff ff       	call   2350 <open_memstream@plt>
    4b1b:	48 89 45 98          	mov    QWORD PTR [rbp-0x68],rax
    4b1f:	48 83 7d 98 00       	cmp    QWORD PTR [rbp-0x68],0x0
    4b24:	75 38                	jne    4b5e <TEST_permutation_t_float_trans____1+0x13af>
    4b26:	48 8b 05 d3 c5 00 00 	mov    rax,QWORD PTR [rip+0xc5d3]        # 11100 <stderr@GLIBC_2.2.5>
    4b2d:	4c 8d 05 ec 97 00 00 	lea    r8,[rip+0x97ec]        # e320 <__func__.3>
    4b34:	b9 34 00 00 00       	mov    ecx,0x34
    4b39:	48 8d 15 04 95 00 00 	lea    rdx,[rip+0x9504]        # e044 <_IO_stdin_used+0x44>
    4b40:	48 8d 35 09 95 00 00 	lea    rsi,[rip+0x9509]        # e050 <_IO_stdin_used+0x50>
    4b47:	48 89 c7             	mov    rdi,rax
    4b4a:	b8 00 00 00 00       	mov    eax,0x0
    4b4f:	e8 0c d9 ff ff       	call   2460 <fprintf@plt>
    4b54:	bf 00 00 00 00       	mov    edi,0x0
    4b59:	e8 c2 d9 ff ff       	call   2520 <exit@plt>
    4b5e:	8b 05 3c c5 00 00    	mov    eax,DWORD PTR [rip+0xc53c]        # 110a0 <k_DEFAULT@@Base>
    4b64:	48 98                	cdqe   
    4b66:	48 8d 14 c5 00 00 00 	lea    rdx,[rax*8+0x0]
    4b6d:	00 
    4b6e:	48 8d 05 4b c5 00 00 	lea    rax,[rip+0xc54b]        # 110c0 <colors_f@@Base>
    4b75:	48 8b 34 02          	mov    rsi,QWORD PTR [rdx+rax*1]
    4b79:	8b 05 01 c5 00 00    	mov    eax,DWORD PTR [rip+0xc501]        # 11080 <hk_TR@@Base>
    4b7f:	48 98                	cdqe   
    4b81:	48 8d 14 c5 00 00 00 	lea    rdx,[rax*8+0x0]
    4b88:	00 
    4b89:	48 8d 05 b0 c4 00 00 	lea    rax,[rip+0xc4b0]        # 11040 <tab_hk_f@@Base>
    4b90:	48 8b 0c 02          	mov    rcx,QWORD PTR [rdx+rax*1]
    4b94:	8b 05 56 c5 00 00    	mov    eax,DWORD PTR [rip+0xc556]        # 110f0 <k_GREEN@@Base>
    4b9a:	48 98                	cdqe   
    4b9c:	48 8d 14 c5 00 00 00 	lea    rdx,[rax*8+0x0]
    4ba3:	00 
    4ba4:	48 8d 05 15 c5 00 00 	lea    rax,[rip+0xc515]        # 110c0 <colors_f@@Base>
    4bab:	48 8b 14 02          	mov    rdx,QWORD PTR [rdx+rax*1]
    4baf:	48 8b 45 98          	mov    rax,QWORD PTR [rbp-0x68]
    4bb3:	4c 8d 0d 66 97 00 00 	lea    r9,[rip+0x9766]        # e320 <__func__.3>
    4bba:	49 89 f0             	mov    r8,rsi
    4bbd:	48 8d 35 c4 94 00 00 	lea    rsi,[rip+0x94c4]        # e088 <_IO_stdin_used+0x88>
    4bc4:	48 89 c7             	mov    rdi,rax
    4bc7:	b8 00 00 00 00       	mov    eax,0x0
    4bcc:	e8 8f d8 ff ff       	call   2460 <fprintf@plt>
    4bd1:	48 8b 45 98          	mov    rax,QWORD PTR [rbp-0x68]
    4bd5:	48 89 c7             	mov    rdi,rax
    4bd8:	e8 b3 d8 ff ff       	call   2490 <fflush@plt>
    4bdd:	0f b6 05 ac c4 00 00 	movzx  eax,BYTE PTR [rip+0xc4ac]        # 11090 <is_parallel_nb@@Base>
    4be4:	84 c0                	test   al,al
    4be6:	0f 84 e9 00 00 00    	je     4cd5 <TEST_permutation_t_float_trans____1+0x1526>
    4bec:	e8 5f d8 ff ff       	call   2450 <id_of_thread_executed@plt>
    4bf1:	48 89 45 a8          	mov    QWORD PTR [rbp-0x58],rax
    4bf5:	0f b6 05 24 c4 00 00 	movzx  eax,BYTE PTR [rip+0xc424]        # 11020 <log_parallel@@Base>
    4bfc:	84 c0                	test   al,al
    4bfe:	74 6d                	je     4c6d <TEST_permutation_t_float_trans____1+0x14be>
    4c00:	48 8b 85 f8 fd ff ff 	mov    rax,QWORD PTR [rbp-0x208]
    4c07:	48 8b 15 1a c4 00 00 	mov    rdx,QWORD PTR [rip+0xc41a]        # 11028 <stdout@GLIBC_2.2.5>
    4c0e:	48 89 d6             	mov    rsi,rdx
    4c11:	48 89 c7             	mov    rdi,rax
    4c14:	e8 c7 d7 ff ff       	call   23e0 <fputs@plt>
    4c19:	48 83 7d a8 00       	cmp    QWORD PTR [rbp-0x58],0x0
    4c1e:	0f 88 15 01 00 00    	js     4d39 <TEST_permutation_t_float_trans____1+0x158a>
    4c24:	48 8b 85 f8 fd ff ff 	mov    rax,QWORD PTR [rbp-0x208]
    4c2b:	48 8b 0d fe c3 00 00 	mov    rcx,QWORD PTR [rip+0xc3fe]        # 11030 <f_ou_th@@Base>
    4c32:	48 8b 55 a8          	mov    rdx,QWORD PTR [rbp-0x58]
    4c36:	48 c1 e2 03          	shl    rdx,0x3
    4c3a:	48 01 ca             	add    rdx,rcx
    4c3d:	48 8b 12             	mov    rdx,QWORD PTR [rdx]
    4c40:	48 89 d6             	mov    rsi,rdx
    4c43:	48 89 c7             	mov    rdi,rax
    4c46:	e8 95 d7 ff ff       	call   23e0 <fputs@plt>
    4c4b:	48 8b 15 de c3 00 00 	mov    rdx,QWORD PTR [rip+0xc3de]        # 11030 <f_ou_th@@Base>
    4c52:	48 8b 45 a8          	mov    rax,QWORD PTR [rbp-0x58]
    4c56:	48 c1 e0 03          	shl    rax,0x3
    4c5a:	48 01 d0             	add    rax,rdx
    4c5d:	48 8b 00             	mov    rax,QWORD PTR [rax]
    4c60:	48 89 c7             	mov    rdi,rax
    4c63:	e8 28 d8 ff ff       	call   2490 <fflush@plt>
    4c68:	e9 cc 00 00 00       	jmp    4d39 <TEST_permutation_t_float_trans____1+0x158a>
    4c6d:	48 83 7d a8 00       	cmp    QWORD PTR [rbp-0x58],0x0
    4c72:	78 46                	js     4cba <TEST_permutation_t_float_trans____1+0x150b>
    4c74:	48 8b 85 f8 fd ff ff 	mov    rax,QWORD PTR [rbp-0x208]
    4c7b:	48 8b 0d ae c3 00 00 	mov    rcx,QWORD PTR [rip+0xc3ae]        # 11030 <f_ou_th@@Base>
    4c82:	48 8b 55 a8          	mov    rdx,QWORD PTR [rbp-0x58]
    4c86:	48 c1 e2 03          	shl    rdx,0x3
    4c8a:	48 01 ca             	add    rdx,rcx
    4c8d:	48 8b 12             	mov    rdx,QWORD PTR [rdx]
    4c90:	48 89 d6             	mov    rsi,rdx
    4c93:	48 89 c7             	mov    rdi,rax
    4c96:	e8 45 d7 ff ff       	call   23e0 <fputs@plt>
    4c9b:	48 8b 15 8e c3 00 00 	mov    rdx,QWORD PTR [rip+0xc38e]        # 11030 <f_ou_th@@Base>
    4ca2:	48 8b 45 a8          	mov    rax,QWORD PTR [rbp-0x58]
    4ca6:	48 c1 e0 03          	shl    rax,0x3
    4caa:	48 01 d0             	add    rax,rdx
    4cad:	48 8b 00             	mov    rax,QWORD PTR [rax]
    4cb0:	48 89 c7             	mov    rdi,rax
    4cb3:	e8 d8 d7 ff ff       	call   2490 <fflush@plt>
    4cb8:	eb 7f                	jmp    4d39 <TEST_permutation_t_float_trans____1+0x158a>
    4cba:	48 8b 85 f8 fd ff ff 	mov    rax,QWORD PTR [rbp-0x208]
    4cc1:	48 8b 15 60 c3 00 00 	mov    rdx,QWORD PTR [rip+0xc360]        # 11028 <stdout@GLIBC_2.2.5>
    4cc8:	48 89 d6             	mov    rsi,rdx
    4ccb:	48 89 c7             	mov    rdi,rax
    4cce:	e8 0d d7 ff ff       	call   23e0 <fputs@plt>
    4cd3:	eb 64                	jmp    4d39 <TEST_permutation_t_float_trans____1+0x158a>
    4cd5:	48 8b 05 5c c3 00 00 	mov    rax,QWORD PTR [rip+0xc35c]        # 11038 <savelog@@Base>
    4cdc:	48 85 c0             	test   rax,rax
    4cdf:	74 3f                	je     4d20 <TEST_permutation_t_float_trans____1+0x1571>
    4ce1:	48 8b 05 50 c3 00 00 	mov    rax,QWORD PTR [rip+0xc350]        # 11038 <savelog@@Base>
    4ce8:	48 8d 15 90 93 00 00 	lea    rdx,[rip+0x9390]        # e07f <_IO_stdin_used+0x7f>
    4cef:	48 89 d6             	mov    rsi,rdx
    4cf2:	48 89 c7             	mov    rdi,rax
    4cf5:	e8 06 d8 ff ff       	call   2500 <fopen@plt>
    4cfa:	48 89 45 a0          	mov    QWORD PTR [rbp-0x60],rax
    4cfe:	48 8b 85 f8 fd ff ff 	mov    rax,QWORD PTR [rbp-0x208]
    4d05:	48 8b 55 a0          	mov    rdx,QWORD PTR [rbp-0x60]
    4d09:	48 89 d6             	mov    rsi,rdx
    4d0c:	48 89 c7             	mov    rdi,rax
    4d0f:	e8 cc d6 ff ff       	call   23e0 <fputs@plt>
    4d14:	48 8b 45 a0          	mov    rax,QWORD PTR [rbp-0x60]
    4d18:	48 89 c7             	mov    rdi,rax
    4d1b:	e8 90 d6 ff ff       	call   23b0 <fclose@plt>
    4d20:	48 8b 85 f8 fd ff ff 	mov    rax,QWORD PTR [rbp-0x208]
    4d27:	48 8b 15 fa c2 00 00 	mov    rdx,QWORD PTR [rip+0xc2fa]        # 11028 <stdout@GLIBC_2.2.5>
    4d2e:	48 89 d6             	mov    rsi,rdx
    4d31:	48 89 c7             	mov    rdi,rax
    4d34:	e8 a7 d6 ff ff       	call   23e0 <fputs@plt>
    4d39:	48 8b 45 98          	mov    rax,QWORD PTR [rbp-0x68]
    4d3d:	48 89 c7             	mov    rdi,rax
    4d40:	e8 6b d6 ff ff       	call   23b0 <fclose@plt>
    4d45:	48 8b 85 f8 fd ff ff 	mov    rax,QWORD PTR [rbp-0x208]
    4d4c:	48 89 c7             	mov    rdi,rax
    4d4f:	e8 dc d5 ff ff       	call   2330 <free@plt>
    4d54:	e9 f2 0c 00 00       	jmp    5a4b <TEST_permutation_t_float_trans____1+0x229c>
    4d59:	48 8d 95 f0 fd ff ff 	lea    rdx,[rbp-0x210]
    4d60:	48 8d 85 f8 fd ff ff 	lea    rax,[rbp-0x208]
    4d67:	48 89 d6             	mov    rsi,rdx
    4d6a:	48 89 c7             	mov    rdi,rax
    4d6d:	e8 de d5 ff ff       	call   2350 <open_memstream@plt>
    4d72:	48 89 85 68 ff ff ff 	mov    QWORD PTR [rbp-0x98],rax
    4d79:	48 83 bd 68 ff ff ff 	cmp    QWORD PTR [rbp-0x98],0x0
    4d80:	00 
    4d81:	75 38                	jne    4dbb <TEST_permutation_t_float_trans____1+0x160c>
    4d83:	48 8b 05 76 c3 00 00 	mov    rax,QWORD PTR [rip+0xc376]        # 11100 <stderr@GLIBC_2.2.5>
    4d8a:	4c 8d 05 8f 95 00 00 	lea    r8,[rip+0x958f]        # e320 <__func__.3>
    4d91:	b9 34 00 00 00       	mov    ecx,0x34
    4d96:	48 8d 15 a7 92 00 00 	lea    rdx,[rip+0x92a7]        # e044 <_IO_stdin_used+0x44>
    4d9d:	48 8d 35 ac 92 00 00 	lea    rsi,[rip+0x92ac]        # e050 <_IO_stdin_used+0x50>
    4da4:	48 89 c7             	mov    rdi,rax
    4da7:	b8 00 00 00 00       	mov    eax,0x0
    4dac:	e8 af d6 ff ff       	call   2460 <fprintf@plt>
    4db1:	bf 00 00 00 00       	mov    edi,0x0
    4db6:	e8 65 d7 ff ff       	call   2520 <exit@plt>
    4dbb:	48 8b 85 00 fe ff ff 	mov    rax,QWORD PTR [rbp-0x200]
    4dc2:	48 8b 44 c5 b0       	mov    rax,QWORD PTR [rbp+rax*8-0x50]
    4dc7:	48 89 c7             	mov    rdi,rax
    4dca:	e8 61 d7 ff ff       	call   2530 <TYPE_L_INT_TO_STR@plt>
    4dcf:	48 89 c3             	mov    rbx,rax
    4dd2:	48 8b 85 b8 fe ff ff 	mov    rax,QWORD PTR [rbp-0x148]
    4dd9:	48 8b 50 10          	mov    rdx,QWORD PTR [rax+0x10]
    4ddd:	48 8b 85 00 fe ff ff 	mov    rax,QWORD PTR [rbp-0x200]
    4de4:	48 c1 e0 03          	shl    rax,0x3
    4de8:	48 01 d0             	add    rax,rdx
    4deb:	48 8b 00             	mov    rax,QWORD PTR [rax]
    4dee:	48 89 c7             	mov    rdi,rax
    4df1:	e8 3a d7 ff ff       	call   2530 <TYPE_L_INT_TO_STR@plt>
    4df6:	48 89 c2             	mov    rdx,rax
    4df9:	48 8b 85 68 ff ff ff 	mov    rax,QWORD PTR [rbp-0x98]
    4e00:	53                   	push   rbx
    4e01:	48 8d 0d 64 93 00 00 	lea    rcx,[rip+0x9364]        # e16c <_IO_stdin_used+0x16c>
    4e08:	51                   	push   rcx
    4e09:	52                   	push   rdx
    4e0a:	48 8d 15 46 93 00 00 	lea    rdx,[rip+0x9346]        # e157 <_IO_stdin_used+0x157>
    4e11:	52                   	push   rdx
    4e12:	48 8d 15 53 93 00 00 	lea    rdx,[rip+0x9353]        # e16c <_IO_stdin_used+0x16c>
    4e19:	52                   	push   rdx
    4e1a:	48 8d 15 e3 92 00 00 	lea    rdx,[rip+0x92e3]        # e104 <_IO_stdin_used+0x104>
    4e21:	52                   	push   rdx
    4e22:	4c 8d 0d 2e 93 00 00 	lea    r9,[rip+0x932e]        # e157 <_IO_stdin_used+0x157>
    4e29:	4c 8d 05 f0 94 00 00 	lea    r8,[rip+0x94f0]        # e320 <__func__.3>
    4e30:	b9 34 00 00 00       	mov    ecx,0x34
    4e35:	48 8d 15 08 92 00 00 	lea    rdx,[rip+0x9208]        # e044 <_IO_stdin_used+0x44>
    4e3c:	48 8d 35 6d 92 00 00 	lea    rsi,[rip+0x926d]        # e0b0 <_IO_stdin_used+0xb0>
    4e43:	48 89 c7             	mov    rdi,rax
    4e46:	b8 00 00 00 00       	mov    eax,0x0
    4e4b:	e8 10 d6 ff ff       	call   2460 <fprintf@plt>
    4e50:	48 83 c4 30          	add    rsp,0x30
    4e54:	48 8b 85 68 ff ff ff 	mov    rax,QWORD PTR [rbp-0x98]
    4e5b:	48 89 c7             	mov    rdi,rax
    4e5e:	e8 2d d6 ff ff       	call   2490 <fflush@plt>
    4e63:	0f b6 05 26 c2 00 00 	movzx  eax,BYTE PTR [rip+0xc226]        # 11090 <is_parallel_nb@@Base>
    4e6a:	84 c0                	test   al,al
    4e6c:	0f 84 01 01 00 00    	je     4f73 <TEST_permutation_t_float_trans____1+0x17c4>
    4e72:	e8 d9 d5 ff ff       	call   2450 <id_of_thread_executed@plt>
    4e77:	48 89 85 78 ff ff ff 	mov    QWORD PTR [rbp-0x88],rax
    4e7e:	0f b6 05 9b c1 00 00 	movzx  eax,BYTE PTR [rip+0xc19b]        # 11020 <log_parallel@@Base>
    4e85:	84 c0                	test   al,al
    4e87:	74 76                	je     4eff <TEST_permutation_t_float_trans____1+0x1750>
    4e89:	48 8b 85 f8 fd ff ff 	mov    rax,QWORD PTR [rbp-0x208]
    4e90:	48 8b 15 91 c1 00 00 	mov    rdx,QWORD PTR [rip+0xc191]        # 11028 <stdout@GLIBC_2.2.5>
    4e97:	48 89 d6             	mov    rsi,rdx
    4e9a:	48 89 c7             	mov    rdi,rax
    4e9d:	e8 3e d5 ff ff       	call   23e0 <fputs@plt>
    4ea2:	48 83 bd 78 ff ff ff 	cmp    QWORD PTR [rbp-0x88],0x0
    4ea9:	00 
    4eaa:	0f 88 30 01 00 00    	js     4fe0 <TEST_permutation_t_float_trans____1+0x1831>
    4eb0:	48 8b 85 f8 fd ff ff 	mov    rax,QWORD PTR [rbp-0x208]
    4eb7:	48 8b 0d 72 c1 00 00 	mov    rcx,QWORD PTR [rip+0xc172]        # 11030 <f_ou_th@@Base>
    4ebe:	48 8b 95 78 ff ff ff 	mov    rdx,QWORD PTR [rbp-0x88]
    4ec5:	48 c1 e2 03          	shl    rdx,0x3
    4ec9:	48 01 ca             	add    rdx,rcx
    4ecc:	48 8b 12             	mov    rdx,QWORD PTR [rdx]
    4ecf:	48 89 d6             	mov    rsi,rdx
    4ed2:	48 89 c7             	mov    rdi,rax
    4ed5:	e8 06 d5 ff ff       	call   23e0 <fputs@plt>
    4eda:	48 8b 15 4f c1 00 00 	mov    rdx,QWORD PTR [rip+0xc14f]        # 11030 <f_ou_th@@Base>
    4ee1:	48 8b 85 78 ff ff ff 	mov    rax,QWORD PTR [rbp-0x88]
    4ee8:	48 c1 e0 03          	shl    rax,0x3
    4eec:	48 01 d0             	add    rax,rdx
    4eef:	48 8b 00             	mov    rax,QWORD PTR [rax]
    4ef2:	48 89 c7             	mov    rdi,rax
    4ef5:	e8 96 d5 ff ff       	call   2490 <fflush@plt>
    4efa:	e9 e1 00 00 00       	jmp    4fe0 <TEST_permutation_t_float_trans____1+0x1831>
    4eff:	48 83 bd 78 ff ff ff 	cmp    QWORD PTR [rbp-0x88],0x0
    4f06:	00 
    4f07:	78 4f                	js     4f58 <TEST_permutation_t_float_trans____1+0x17a9>
    4f09:	48 8b 85 f8 fd ff ff 	mov    rax,QWORD PTR [rbp-0x208]
    4f10:	48 8b 0d 19 c1 00 00 	mov    rcx,QWORD PTR [rip+0xc119]        # 11030 <f_ou_th@@Base>
    4f17:	48 8b 95 78 ff ff ff 	mov    rdx,QWORD PTR [rbp-0x88]
    4f1e:	48 c1 e2 03          	shl    rdx,0x3
    4f22:	48 01 ca             	add    rdx,rcx
    4f25:	48 8b 12             	mov    rdx,QWORD PTR [rdx]
    4f28:	48 89 d6             	mov    rsi,rdx
    4f2b:	48 89 c7             	mov    rdi,rax
    4f2e:	e8 ad d4 ff ff       	call   23e0 <fputs@plt>
    4f33:	48 8b 15 f6 c0 00 00 	mov    rdx,QWORD PTR [rip+0xc0f6]        # 11030 <f_ou_th@@Base>
    4f3a:	48 8b 85 78 ff ff ff 	mov    rax,QWORD PTR [rbp-0x88]
    4f41:	48 c1 e0 03          	shl    rax,0x3
    4f45:	48 01 d0             	add    rax,rdx
    4f48:	48 8b 00             	mov    rax,QWORD PTR [rax]
    4f4b:	48 89 c7             	mov    rdi,rax
    4f4e:	e8 3d d5 ff ff       	call   2490 <fflush@plt>
    4f53:	e9 88 00 00 00       	jmp    4fe0 <TEST_permutation_t_float_trans____1+0x1831>
    4f58:	48 8b 85 f8 fd ff ff 	mov    rax,QWORD PTR [rbp-0x208]
    4f5f:	48 8b 15 c2 c0 00 00 	mov    rdx,QWORD PTR [rip+0xc0c2]        # 11028 <stdout@GLIBC_2.2.5>
    4f66:	48 89 d6             	mov    rsi,rdx
    4f69:	48 89 c7             	mov    rdi,rax
    4f6c:	e8 6f d4 ff ff       	call   23e0 <fputs@plt>
    4f71:	eb 6d                	jmp    4fe0 <TEST_permutation_t_float_trans____1+0x1831>
    4f73:	48 8b 05 be c0 00 00 	mov    rax,QWORD PTR [rip+0xc0be]        # 11038 <savelog@@Base>
    4f7a:	48 85 c0             	test   rax,rax
    4f7d:	74 48                	je     4fc7 <TEST_permutation_t_float_trans____1+0x1818>
    4f7f:	48 8b 05 b2 c0 00 00 	mov    rax,QWORD PTR [rip+0xc0b2]        # 11038 <savelog@@Base>
    4f86:	48 8d 15 f2 90 00 00 	lea    rdx,[rip+0x90f2]        # e07f <_IO_stdin_used+0x7f>
    4f8d:	48 89 d6             	mov    rsi,rdx
    4f90:	48 89 c7             	mov    rdi,rax
    4f93:	e8 68 d5 ff ff       	call   2500 <fopen@plt>
    4f98:	48 89 85 70 ff ff ff 	mov    QWORD PTR [rbp-0x90],rax
    4f9f:	48 8b 85 f8 fd ff ff 	mov    rax,QWORD PTR [rbp-0x208]
    4fa6:	48 8b 95 70 ff ff ff 	mov    rdx,QWORD PTR [rbp-0x90]
    4fad:	48 89 d6             	mov    rsi,rdx
    4fb0:	48 89 c7             	mov    rdi,rax
    4fb3:	e8 28 d4 ff ff       	call   23e0 <fputs@plt>
    4fb8:	48 8b 85 70 ff ff ff 	mov    rax,QWORD PTR [rbp-0x90]
    4fbf:	48 89 c7             	mov    rdi,rax
    4fc2:	e8 e9 d3 ff ff       	call   23b0 <fclose@plt>
    4fc7:	48 8b 85 f8 fd ff ff 	mov    rax,QWORD PTR [rbp-0x208]
    4fce:	48 8b 15 53 c0 00 00 	mov    rdx,QWORD PTR [rip+0xc053]        # 11028 <stdout@GLIBC_2.2.5>
    4fd5:	48 89 d6             	mov    rsi,rdx
    4fd8:	48 89 c7             	mov    rdi,rax
    4fdb:	e8 00 d4 ff ff       	call   23e0 <fputs@plt>
    4fe0:	48 8b 85 68 ff ff ff 	mov    rax,QWORD PTR [rbp-0x98]
    4fe7:	48 89 c7             	mov    rdi,rax
    4fea:	e8 c1 d3 ff ff       	call   23b0 <fclose@plt>
    4fef:	48 8b 85 f8 fd ff ff 	mov    rax,QWORD PTR [rbp-0x208]
    4ff6:	48 89 c7             	mov    rdi,rax
    4ff9:	e8 32 d3 ff ff       	call   2330 <free@plt>
    4ffe:	48 8d 95 f0 fd ff ff 	lea    rdx,[rbp-0x210]
    5005:	48 8d 85 f8 fd ff ff 	lea    rax,[rbp-0x208]
    500c:	48 89 d6             	mov    rsi,rdx
    500f:	48 89 c7             	mov    rdi,rax
    5012:	e8 39 d3 ff ff       	call   2350 <open_memstream@plt>
    5017:	48 89 45 80          	mov    QWORD PTR [rbp-0x80],rax
    501b:	48 83 7d 80 00       	cmp    QWORD PTR [rbp-0x80],0x0
    5020:	75 38                	jne    505a <TEST_permutation_t_float_trans____1+0x18ab>
    5022:	48 8b 05 d7 c0 00 00 	mov    rax,QWORD PTR [rip+0xc0d7]        # 11100 <stderr@GLIBC_2.2.5>
    5029:	4c 8d 05 f0 92 00 00 	lea    r8,[rip+0x92f0]        # e320 <__func__.3>
    5030:	b9 34 00 00 00       	mov    ecx,0x34
    5035:	48 8d 15 08 90 00 00 	lea    rdx,[rip+0x9008]        # e044 <_IO_stdin_used+0x44>
    503c:	48 8d 35 0d 90 00 00 	lea    rsi,[rip+0x900d]        # e050 <_IO_stdin_used+0x50>
    5043:	48 89 c7             	mov    rdi,rax
    5046:	b8 00 00 00 00       	mov    eax,0x0
    504b:	e8 10 d4 ff ff       	call   2460 <fprintf@plt>
    5050:	bf 00 00 00 00       	mov    edi,0x0
    5055:	e8 c6 d4 ff ff       	call   2520 <exit@plt>
    505a:	8b 05 40 c0 00 00    	mov    eax,DWORD PTR [rip+0xc040]        # 110a0 <k_DEFAULT@@Base>
    5060:	48 98                	cdqe   
    5062:	48 8d 14 c5 00 00 00 	lea    rdx,[rax*8+0x0]
    5069:	00 
    506a:	48 8d 05 4f c0 00 00 	lea    rax,[rip+0xc04f]        # 110c0 <colors_f@@Base>
    5071:	48 8b 34 02          	mov    rsi,QWORD PTR [rdx+rax*1]
    5075:	8b 05 05 c0 00 00    	mov    eax,DWORD PTR [rip+0xc005]        # 11080 <hk_TR@@Base>
    507b:	48 98                	cdqe   
    507d:	48 8d 14 c5 00 00 00 	lea    rdx,[rax*8+0x0]
    5084:	00 
    5085:	48 8d 05 b4 bf 00 00 	lea    rax,[rip+0xbfb4]        # 11040 <tab_hk_f@@Base>
    508c:	48 8b 0c 02          	mov    rcx,QWORD PTR [rdx+rax*1]
    5090:	8b 05 ee bf 00 00    	mov    eax,DWORD PTR [rip+0xbfee]        # 11084 <k_RED@@Base>
    5096:	48 98                	cdqe   
    5098:	48 8d 14 c5 00 00 00 	lea    rdx,[rax*8+0x0]
    509f:	00 
    50a0:	48 8d 05 19 c0 00 00 	lea    rax,[rip+0xc019]        # 110c0 <colors_f@@Base>
    50a7:	48 8b 14 02          	mov    rdx,QWORD PTR [rdx+rax*1]
    50ab:	48 8b 45 80          	mov    rax,QWORD PTR [rbp-0x80]
    50af:	4c 8d 0d 6a 92 00 00 	lea    r9,[rip+0x926a]        # e320 <__func__.3>
    50b6:	49 89 f0             	mov    r8,rsi
    50b9:	48 8d 35 48 90 00 00 	lea    rsi,[rip+0x9048]        # e108 <_IO_stdin_used+0x108>
    50c0:	48 89 c7             	mov    rdi,rax
    50c3:	b8 00 00 00 00       	mov    eax,0x0
    50c8:	e8 93 d3 ff ff       	call   2460 <fprintf@plt>
    50cd:	48 8b 45 80          	mov    rax,QWORD PTR [rbp-0x80]
    50d1:	48 89 c7             	mov    rdi,rax
    50d4:	e8 b7 d3 ff ff       	call   2490 <fflush@plt>
    50d9:	0f b6 05 b0 bf 00 00 	movzx  eax,BYTE PTR [rip+0xbfb0]        # 11090 <is_parallel_nb@@Base>
    50e0:	84 c0                	test   al,al
    50e2:	0f 84 e9 00 00 00    	je     51d1 <TEST_permutation_t_float_trans____1+0x1a22>
    50e8:	e8 63 d3 ff ff       	call   2450 <id_of_thread_executed@plt>
    50ed:	48 89 45 90          	mov    QWORD PTR [rbp-0x70],rax
    50f1:	0f b6 05 28 bf 00 00 	movzx  eax,BYTE PTR [rip+0xbf28]        # 11020 <log_parallel@@Base>
    50f8:	84 c0                	test   al,al
    50fa:	74 6d                	je     5169 <TEST_permutation_t_float_trans____1+0x19ba>
    50fc:	48 8b 85 f8 fd ff ff 	mov    rax,QWORD PTR [rbp-0x208]
    5103:	48 8b 15 1e bf 00 00 	mov    rdx,QWORD PTR [rip+0xbf1e]        # 11028 <stdout@GLIBC_2.2.5>
    510a:	48 89 d6             	mov    rsi,rdx
    510d:	48 89 c7             	mov    rdi,rax
    5110:	e8 cb d2 ff ff       	call   23e0 <fputs@plt>
    5115:	48 83 7d 90 00       	cmp    QWORD PTR [rbp-0x70],0x0
    511a:	0f 88 15 01 00 00    	js     5235 <TEST_permutation_t_float_trans____1+0x1a86>
    5120:	48 8b 85 f8 fd ff ff 	mov    rax,QWORD PTR [rbp-0x208]
    5127:	48 8b 0d 02 bf 00 00 	mov    rcx,QWORD PTR [rip+0xbf02]        # 11030 <f_ou_th@@Base>
    512e:	48 8b 55 90          	mov    rdx,QWORD PTR [rbp-0x70]
    5132:	48 c1 e2 03          	shl    rdx,0x3
    5136:	48 01 ca             	add    rdx,rcx
    5139:	48 8b 12             	mov    rdx,QWORD PTR [rdx]
    513c:	48 89 d6             	mov    rsi,rdx
    513f:	48 89 c7             	mov    rdi,rax
    5142:	e8 99 d2 ff ff       	call   23e0 <fputs@plt>
    5147:	48 8b 15 e2 be 00 00 	mov    rdx,QWORD PTR [rip+0xbee2]        # 11030 <f_ou_th@@Base>
    514e:	48 8b 45 90          	mov    rax,QWORD PTR [rbp-0x70]
    5152:	48 c1 e0 03          	shl    rax,0x3
    5156:	48 01 d0             	add    rax,rdx
    5159:	48 8b 00             	mov    rax,QWORD PTR [rax]
    515c:	48 89 c7             	mov    rdi,rax
    515f:	e8 2c d3 ff ff       	call   2490 <fflush@plt>
    5164:	e9 cc 00 00 00       	jmp    5235 <TEST_permutation_t_float_trans____1+0x1a86>
    5169:	48 83 7d 90 00       	cmp    QWORD PTR [rbp-0x70],0x0
    516e:	78 46                	js     51b6 <TEST_permutation_t_float_trans____1+0x1a07>
    5170:	48 8b 85 f8 fd ff ff 	mov    rax,QWORD PTR [rbp-0x208]
    5177:	48 8b 0d b2 be 00 00 	mov    rcx,QWORD PTR [rip+0xbeb2]        # 11030 <f_ou_th@@Base>
    517e:	48 8b 55 90          	mov    rdx,QWORD PTR [rbp-0x70]
    5182:	48 c1 e2 03          	shl    rdx,0x3
    5186:	48 01 ca             	add    rdx,rcx
    5189:	48 8b 12             	mov    rdx,QWORD PTR [rdx]
    518c:	48 89 d6             	mov    rsi,rdx
    518f:	48 89 c7             	mov    rdi,rax
    5192:	e8 49 d2 ff ff       	call   23e0 <fputs@plt>
    5197:	48 8b 15 92 be 00 00 	mov    rdx,QWORD PTR [rip+0xbe92]        # 11030 <f_ou_th@@Base>
    519e:	48 8b 45 90          	mov    rax,QWORD PTR [rbp-0x70]
    51a2:	48 c1 e0 03          	shl    rax,0x3
    51a6:	48 01 d0             	add    rax,rdx
    51a9:	48 8b 00             	mov    rax,QWORD PTR [rax]
    51ac:	48 89 c7             	mov    rdi,rax
    51af:	e8 dc d2 ff ff       	call   2490 <fflush@plt>
    51b4:	eb 7f                	jmp    5235 <TEST_permutation_t_float_trans____1+0x1a86>
    51b6:	48 8b 85 f8 fd ff ff 	mov    rax,QWORD PTR [rbp-0x208]
    51bd:	48 8b 15 64 be 00 00 	mov    rdx,QWORD PTR [rip+0xbe64]        # 11028 <stdout@GLIBC_2.2.5>
    51c4:	48 89 d6             	mov    rsi,rdx
    51c7:	48 89 c7             	mov    rdi,rax
    51ca:	e8 11 d2 ff ff       	call   23e0 <fputs@plt>
    51cf:	eb 64                	jmp    5235 <TEST_permutation_t_float_trans____1+0x1a86>
    51d1:	48 8b 05 60 be 00 00 	mov    rax,QWORD PTR [rip+0xbe60]        # 11038 <savelog@@Base>
    51d8:	48 85 c0             	test   rax,rax
    51db:	74 3f                	je     521c <TEST_permutation_t_float_trans____1+0x1a6d>
    51dd:	48 8b 05 54 be 00 00 	mov    rax,QWORD PTR [rip+0xbe54]        # 11038 <savelog@@Base>
    51e4:	48 8d 15 94 8e 00 00 	lea    rdx,[rip+0x8e94]        # e07f <_IO_stdin_used+0x7f>
    51eb:	48 89 d6             	mov    rsi,rdx
    51ee:	48 89 c7             	mov    rdi,rax
    51f1:	e8 0a d3 ff ff       	call   2500 <fopen@plt>
    51f6:	48 89 45 88          	mov    QWORD PTR [rbp-0x78],rax
    51fa:	48 8b 85 f8 fd ff ff 	mov    rax,QWORD PTR [rbp-0x208]
    5201:	48 8b 55 88          	mov    rdx,QWORD PTR [rbp-0x78]
    5205:	48 89 d6             	mov    rsi,rdx
    5208:	48 89 c7             	mov    rdi,rax
    520b:	e8 d0 d1 ff ff       	call   23e0 <fputs@plt>
    5210:	48 8b 45 88          	mov    rax,QWORD PTR [rbp-0x78]
    5214:	48 89 c7             	mov    rdi,rax
    5217:	e8 94 d1 ff ff       	call   23b0 <fclose@plt>
    521c:	48 8b 85 f8 fd ff ff 	mov    rax,QWORD PTR [rbp-0x208]
    5223:	48 8b 15 fe bd 00 00 	mov    rdx,QWORD PTR [rip+0xbdfe]        # 11028 <stdout@GLIBC_2.2.5>
    522a:	48 89 d6             	mov    rsi,rdx
    522d:	48 89 c7             	mov    rdi,rax
    5230:	e8 ab d1 ff ff       	call   23e0 <fputs@plt>
    5235:	48 8b 45 80          	mov    rax,QWORD PTR [rbp-0x80]
    5239:	48 89 c7             	mov    rdi,rax
    523c:	e8 6f d1 ff ff       	call   23b0 <fclose@plt>
    5241:	48 8b 85 f8 fd ff ff 	mov    rax,QWORD PTR [rbp-0x208]
    5248:	48 89 c7             	mov    rdi,rax
    524b:	e8 e0 d0 ff ff       	call   2330 <free@plt>
    5250:	e9 f6 07 00 00       	jmp    5a4b <TEST_permutation_t_float_trans____1+0x229c>
    5255:	48 8b 85 00 fe ff ff 	mov    rax,QWORD PTR [rbp-0x200]
    525c:	48 8b 44 c5 b0       	mov    rax,QWORD PTR [rbp+rax*8-0x50]
    5261:	48 89 c6             	mov    rsi,rax
    5264:	48 8b 85 b8 fe ff ff 	mov    rax,QWORD PTR [rbp-0x148]
    526b:	48 8b 50 10          	mov    rdx,QWORD PTR [rax+0x10]
    526f:	48 8b 85 00 fe ff ff 	mov    rax,QWORD PTR [rbp-0x200]
    5276:	48 c1 e0 03          	shl    rax,0x3
    527a:	48 01 d0             	add    rax,rdx
    527d:	48 8b 00             	mov    rax,QWORD PTR [rax]
    5280:	48 89 c1             	mov    rcx,rax
    5283:	48 8d 05 96 90 00 00 	lea    rax,[rip+0x9096]        # e320 <__func__.3>
    528a:	48 89 c2             	mov    rdx,rax
    528d:	48 89 cf             	mov    rdi,rcx
    5290:	e8 eb d0 ff ff       	call   2380 <expected_EQ_name_TYPE_L_INT@plt>
    5295:	84 c0                	test   al,al
    5297:	0f 84 87 02 00 00    	je     5524 <TEST_permutation_t_float_trans____1+0x1d75>
    529d:	48 8d 95 f0 fd ff ff 	lea    rdx,[rbp-0x210]
    52a4:	48 8d 85 f8 fd ff ff 	lea    rax,[rbp-0x208]
    52ab:	48 89 d6             	mov    rsi,rdx
    52ae:	48 89 c7             	mov    rdi,rax
    52b1:	e8 9a d0 ff ff       	call   2350 <open_memstream@plt>
    52b6:	48 89 85 50 ff ff ff 	mov    QWORD PTR [rbp-0xb0],rax
    52bd:	48 83 bd 50 ff ff ff 	cmp    QWORD PTR [rbp-0xb0],0x0
    52c4:	00 
    52c5:	75 38                	jne    52ff <TEST_permutation_t_float_trans____1+0x1b50>
    52c7:	48 8b 05 32 be 00 00 	mov    rax,QWORD PTR [rip+0xbe32]        # 11100 <stderr@GLIBC_2.2.5>
    52ce:	4c 8d 05 4b 90 00 00 	lea    r8,[rip+0x904b]        # e320 <__func__.3>
    52d5:	b9 34 00 00 00       	mov    ecx,0x34
    52da:	48 8d 15 63 8d 00 00 	lea    rdx,[rip+0x8d63]        # e044 <_IO_stdin_used+0x44>
    52e1:	48 8d 35 68 8d 00 00 	lea    rsi,[rip+0x8d68]        # e050 <_IO_stdin_used+0x50>
    52e8:	48 89 c7             	mov    rdi,rax
    52eb:	b8 00 00 00 00       	mov    eax,0x0
    52f0:	e8 6b d1 ff ff       	call   2460 <fprintf@plt>
    52f5:	bf 00 00 00 00       	mov    edi,0x0
    52fa:	e8 21 d2 ff ff       	call   2520 <exit@plt>
    52ff:	8b 05 9b bd 00 00    	mov    eax,DWORD PTR [rip+0xbd9b]        # 110a0 <k_DEFAULT@@Base>
    5305:	48 98                	cdqe   
    5307:	48 8d 14 c5 00 00 00 	lea    rdx,[rax*8+0x0]
    530e:	00 
    530f:	48 8d 05 aa bd 00 00 	lea    rax,[rip+0xbdaa]        # 110c0 <colors_f@@Base>
    5316:	48 8b 34 02          	mov    rsi,QWORD PTR [rdx+rax*1]
    531a:	8b 05 60 bd 00 00    	mov    eax,DWORD PTR [rip+0xbd60]        # 11080 <hk_TR@@Base>
    5320:	48 98                	cdqe   
    5322:	48 8d 14 c5 00 00 00 	lea    rdx,[rax*8+0x0]
    5329:	00 
    532a:	48 8d 05 0f bd 00 00 	lea    rax,[rip+0xbd0f]        # 11040 <tab_hk_f@@Base>
    5331:	48 8b 0c 02          	mov    rcx,QWORD PTR [rdx+rax*1]
    5335:	8b 05 b5 bd 00 00    	mov    eax,DWORD PTR [rip+0xbdb5]        # 110f0 <k_GREEN@@Base>
    533b:	48 98                	cdqe   
    533d:	48 8d 14 c5 00 00 00 	lea    rdx,[rax*8+0x0]
    5344:	00 
    5345:	48 8d 05 74 bd 00 00 	lea    rax,[rip+0xbd74]        # 110c0 <colors_f@@Base>
    534c:	48 8b 14 02          	mov    rdx,QWORD PTR [rdx+rax*1]
    5350:	48 8b 85 50 ff ff ff 	mov    rax,QWORD PTR [rbp-0xb0]
    5357:	4c 8d 0d c2 8f 00 00 	lea    r9,[rip+0x8fc2]        # e320 <__func__.3>
    535e:	49 89 f0             	mov    r8,rsi
    5361:	48 8d 35 20 8d 00 00 	lea    rsi,[rip+0x8d20]        # e088 <_IO_stdin_used+0x88>
    5368:	48 89 c7             	mov    rdi,rax
    536b:	b8 00 00 00 00       	mov    eax,0x0
    5370:	e8 eb d0 ff ff       	call   2460 <fprintf@plt>
    5375:	48 8b 85 50 ff ff ff 	mov    rax,QWORD PTR [rbp-0xb0]
    537c:	48 89 c7             	mov    rdi,rax
    537f:	e8 0c d1 ff ff       	call   2490 <fflush@plt>
    5384:	0f b6 05 05 bd 00 00 	movzx  eax,BYTE PTR [rip+0xbd05]        # 11090 <is_parallel_nb@@Base>
    538b:	84 c0                	test   al,al
    538d:	0f 84 01 01 00 00    	je     5494 <TEST_permutation_t_float_trans____1+0x1ce5>
    5393:	e8 b8 d0 ff ff       	call   2450 <id_of_thread_executed@plt>
    5398:	48 89 85 60 ff ff ff 	mov    QWORD PTR [rbp-0xa0],rax
    539f:	0f b6 05 7a bc 00 00 	movzx  eax,BYTE PTR [rip+0xbc7a]        # 11020 <log_parallel@@Base>
    53a6:	84 c0                	test   al,al
    53a8:	74 76                	je     5420 <TEST_permutation_t_float_trans____1+0x1c71>
    53aa:	48 8b 85 f8 fd ff ff 	mov    rax,QWORD PTR [rbp-0x208]
    53b1:	48 8b 15 70 bc 00 00 	mov    rdx,QWORD PTR [rip+0xbc70]        # 11028 <stdout@GLIBC_2.2.5>
    53b8:	48 89 d6             	mov    rsi,rdx
    53bb:	48 89 c7             	mov    rdi,rax
    53be:	e8 1d d0 ff ff       	call   23e0 <fputs@plt>
    53c3:	48 83 bd 60 ff ff ff 	cmp    QWORD PTR [rbp-0xa0],0x0
    53ca:	00 
    53cb:	0f 88 30 01 00 00    	js     5501 <TEST_permutation_t_float_trans____1+0x1d52>
    53d1:	48 8b 85 f8 fd ff ff 	mov    rax,QWORD PTR [rbp-0x208]
    53d8:	48 8b 0d 51 bc 00 00 	mov    rcx,QWORD PTR [rip+0xbc51]        # 11030 <f_ou_th@@Base>
    53df:	48 8b 95 60 ff ff ff 	mov    rdx,QWORD PTR [rbp-0xa0]
    53e6:	48 c1 e2 03          	shl    rdx,0x3
    53ea:	48 01 ca             	add    rdx,rcx
    53ed:	48 8b 12             	mov    rdx,QWORD PTR [rdx]
    53f0:	48 89 d6             	mov    rsi,rdx
    53f3:	48 89 c7             	mov    rdi,rax
    53f6:	e8 e5 cf ff ff       	call   23e0 <fputs@plt>
    53fb:	48 8b 15 2e bc 00 00 	mov    rdx,QWORD PTR [rip+0xbc2e]        # 11030 <f_ou_th@@Base>
    5402:	48 8b 85 60 ff ff ff 	mov    rax,QWORD PTR [rbp-0xa0]
    5409:	48 c1 e0 03          	shl    rax,0x3
    540d:	48 01 d0             	add    rax,rdx
    5410:	48 8b 00             	mov    rax,QWORD PTR [rax]
    5413:	48 89 c7             	mov    rdi,rax
    5416:	e8 75 d0 ff ff       	call   2490 <fflush@plt>
    541b:	e9 e1 00 00 00       	jmp    5501 <TEST_permutation_t_float_trans____1+0x1d52>
    5420:	48 83 bd 60 ff ff ff 	cmp    QWORD PTR [rbp-0xa0],0x0
    5427:	00 
    5428:	78 4f                	js     5479 <TEST_permutation_t_float_trans____1+0x1cca>
    542a:	48 8b 85 f8 fd ff ff 	mov    rax,QWORD PTR [rbp-0x208]
    5431:	48 8b 0d f8 bb 00 00 	mov    rcx,QWORD PTR [rip+0xbbf8]        # 11030 <f_ou_th@@Base>
    5438:	48 8b 95 60 ff ff ff 	mov    rdx,QWORD PTR [rbp-0xa0]
    543f:	48 c1 e2 03          	shl    rdx,0x3
    5443:	48 01 ca             	add    rdx,rcx
    5446:	48 8b 12             	mov    rdx,QWORD PTR [rdx]
    5449:	48 89 d6             	mov    rsi,rdx
    544c:	48 89 c7             	mov    rdi,rax
    544f:	e8 8c cf ff ff       	call   23e0 <fputs@plt>
    5454:	48 8b 15 d5 bb 00 00 	mov    rdx,QWORD PTR [rip+0xbbd5]        # 11030 <f_ou_th@@Base>
    545b:	48 8b 85 60 ff ff ff 	mov    rax,QWORD PTR [rbp-0xa0]
    5462:	48 c1 e0 03          	shl    rax,0x3
    5466:	48 01 d0             	add    rax,rdx
    5469:	48 8b 00             	mov    rax,QWORD PTR [rax]
    546c:	48 89 c7             	mov    rdi,rax
    546f:	e8 1c d0 ff ff       	call   2490 <fflush@plt>
    5474:	e9 88 00 00 00       	jmp    5501 <TEST_permutation_t_float_trans____1+0x1d52>
    5479:	48 8b 85 f8 fd ff ff 	mov    rax,QWORD PTR [rbp-0x208]
    5480:	48 8b 15 a1 bb 00 00 	mov    rdx,QWORD PTR [rip+0xbba1]        # 11028 <stdout@GLIBC_2.2.5>
    5487:	48 89 d6             	mov    rsi,rdx
    548a:	48 89 c7             	mov    rdi,rax
    548d:	e8 4e cf ff ff       	call   23e0 <fputs@plt>
    5492:	eb 6d                	jmp    5501 <TEST_permutation_t_float_trans____1+0x1d52>
    5494:	48 8b 05 9d bb 00 00 	mov    rax,QWORD PTR [rip+0xbb9d]        # 11038 <savelog@@Base>
    549b:	48 85 c0             	test   rax,rax
    549e:	74 48                	je     54e8 <TEST_permutation_t_float_trans____1+0x1d39>
    54a0:	48 8b 05 91 bb 00 00 	mov    rax,QWORD PTR [rip+0xbb91]        # 11038 <savelog@@Base>
    54a7:	48 8d 15 d1 8b 00 00 	lea    rdx,[rip+0x8bd1]        # e07f <_IO_stdin_used+0x7f>
    54ae:	48 89 d6             	mov    rsi,rdx
    54b1:	48 89 c7             	mov    rdi,rax
    54b4:	e8 47 d0 ff ff       	call   2500 <fopen@plt>
    54b9:	48 89 85 58 ff ff ff 	mov    QWORD PTR [rbp-0xa8],rax
    54c0:	48 8b 85 f8 fd ff ff 	mov    rax,QWORD PTR [rbp-0x208]
    54c7:	48 8b 95 58 ff ff ff 	mov    rdx,QWORD PTR [rbp-0xa8]
    54ce:	48 89 d6             	mov    rsi,rdx
    54d1:	48 89 c7             	mov    rdi,rax
    54d4:	e8 07 cf ff ff       	call   23e0 <fputs@plt>
    54d9:	48 8b 85 58 ff ff ff 	mov    rax,QWORD PTR [rbp-0xa8]
    54e0:	48 89 c7             	mov    rdi,rax
    54e3:	e8 c8 ce ff ff       	call   23b0 <fclose@plt>
    54e8:	48 8b 85 f8 fd ff ff 	mov    rax,QWORD PTR [rbp-0x208]
    54ef:	48 8b 15 32 bb 00 00 	mov    rdx,QWORD PTR [rip+0xbb32]        # 11028 <stdout@GLIBC_2.2.5>
    54f6:	48 89 d6             	mov    rsi,rdx
    54f9:	48 89 c7             	mov    rdi,rax
    54fc:	e8 df ce ff ff       	call   23e0 <fputs@plt>
    5501:	48 8b 85 50 ff ff ff 	mov    rax,QWORD PTR [rbp-0xb0]
    5508:	48 89 c7             	mov    rdi,rax
    550b:	e8 a0 ce ff ff       	call   23b0 <fclose@plt>
    5510:	48 8b 85 f8 fd ff ff 	mov    rax,QWORD PTR [rbp-0x208]
    5517:	48 89 c7             	mov    rdi,rax
    551a:	e8 11 ce ff ff       	call   2330 <free@plt>
    551f:	e9 27 05 00 00       	jmp    5a4b <TEST_permutation_t_float_trans____1+0x229c>
    5524:	48 8d 95 f0 fd ff ff 	lea    rdx,[rbp-0x210]
    552b:	48 8d 85 f8 fd ff ff 	lea    rax,[rbp-0x208]
    5532:	48 89 d6             	mov    rsi,rdx
    5535:	48 89 c7             	mov    rdi,rax
    5538:	e8 13 ce ff ff       	call   2350 <open_memstream@plt>
    553d:	48 89 85 20 ff ff ff 	mov    QWORD PTR [rbp-0xe0],rax
    5544:	48 83 bd 20 ff ff ff 	cmp    QWORD PTR [rbp-0xe0],0x0
    554b:	00 
    554c:	75 38                	jne    5586 <TEST_permutation_t_float_trans____1+0x1dd7>
    554e:	48 8b 05 ab bb 00 00 	mov    rax,QWORD PTR [rip+0xbbab]        # 11100 <stderr@GLIBC_2.2.5>
    5555:	4c 8d 05 c4 8d 00 00 	lea    r8,[rip+0x8dc4]        # e320 <__func__.3>
    555c:	b9 34 00 00 00       	mov    ecx,0x34
    5561:	48 8d 15 dc 8a 00 00 	lea    rdx,[rip+0x8adc]        # e044 <_IO_stdin_used+0x44>
    5568:	48 8d 35 e1 8a 00 00 	lea    rsi,[rip+0x8ae1]        # e050 <_IO_stdin_used+0x50>
    556f:	48 89 c7             	mov    rdi,rax
    5572:	b8 00 00 00 00       	mov    eax,0x0
    5577:	e8 e4 ce ff ff       	call   2460 <fprintf@plt>
    557c:	bf 00 00 00 00       	mov    edi,0x0
    5581:	e8 9a cf ff ff       	call   2520 <exit@plt>
    5586:	48 8b 85 00 fe ff ff 	mov    rax,QWORD PTR [rbp-0x200]
    558d:	48 8b 44 c5 b0       	mov    rax,QWORD PTR [rbp+rax*8-0x50]
    5592:	48 89 c7             	mov    rdi,rax
    5595:	e8 96 cf ff ff       	call   2530 <TYPE_L_INT_TO_STR@plt>
    559a:	48 89 c3             	mov    rbx,rax
    559d:	48 8b 85 b8 fe ff ff 	mov    rax,QWORD PTR [rbp-0x148]
    55a4:	48 8b 50 10          	mov    rdx,QWORD PTR [rax+0x10]
    55a8:	48 8b 85 00 fe ff ff 	mov    rax,QWORD PTR [rbp-0x200]
    55af:	48 c1 e0 03          	shl    rax,0x3
    55b3:	48 01 d0             	add    rax,rdx
    55b6:	48 8b 00             	mov    rax,QWORD PTR [rax]
    55b9:	48 89 c7             	mov    rdi,rax
    55bc:	e8 6f cf ff ff       	call   2530 <TYPE_L_INT_TO_STR@plt>
    55c1:	48 89 c2             	mov    rdx,rax
    55c4:	48 8b 85 20 ff ff ff 	mov    rax,QWORD PTR [rbp-0xe0]
    55cb:	53                   	push   rbx
    55cc:	48 8d 0d 99 8b 00 00 	lea    rcx,[rip+0x8b99]        # e16c <_IO_stdin_used+0x16c>
    55d3:	51                   	push   rcx
    55d4:	52                   	push   rdx
    55d5:	48 8d 15 7b 8b 00 00 	lea    rdx,[rip+0x8b7b]        # e157 <_IO_stdin_used+0x157>
    55dc:	52                   	push   rdx
    55dd:	48 8d 15 88 8b 00 00 	lea    rdx,[rip+0x8b88]        # e16c <_IO_stdin_used+0x16c>
    55e4:	52                   	push   rdx
    55e5:	48 8d 15 18 8b 00 00 	lea    rdx,[rip+0x8b18]        # e104 <_IO_stdin_used+0x104>
    55ec:	52                   	push   rdx
    55ed:	4c 8d 0d 63 8b 00 00 	lea    r9,[rip+0x8b63]        # e157 <_IO_stdin_used+0x157>
    55f4:	4c 8d 05 25 8d 00 00 	lea    r8,[rip+0x8d25]        # e320 <__func__.3>
    55fb:	b9 34 00 00 00       	mov    ecx,0x34
    5600:	48 8d 15 3d 8a 00 00 	lea    rdx,[rip+0x8a3d]        # e044 <_IO_stdin_used+0x44>
    5607:	48 8d 35 a2 8a 00 00 	lea    rsi,[rip+0x8aa2]        # e0b0 <_IO_stdin_used+0xb0>
    560e:	48 89 c7             	mov    rdi,rax
    5611:	b8 00 00 00 00       	mov    eax,0x0
    5616:	e8 45 ce ff ff       	call   2460 <fprintf@plt>
    561b:	48 83 c4 30          	add    rsp,0x30
    561f:	48 8b 85 20 ff ff ff 	mov    rax,QWORD PTR [rbp-0xe0]
    5626:	48 89 c7             	mov    rdi,rax
    5629:	e8 62 ce ff ff       	call   2490 <fflush@plt>
    562e:	0f b6 05 5b ba 00 00 	movzx  eax,BYTE PTR [rip+0xba5b]        # 11090 <is_parallel_nb@@Base>
    5635:	84 c0                	test   al,al
    5637:	0f 84 01 01 00 00    	je     573e <TEST_permutation_t_float_trans____1+0x1f8f>
    563d:	e8 0e ce ff ff       	call   2450 <id_of_thread_executed@plt>
    5642:	48 89 85 30 ff ff ff 	mov    QWORD PTR [rbp-0xd0],rax
    5649:	0f b6 05 d0 b9 00 00 	movzx  eax,BYTE PTR [rip+0xb9d0]        # 11020 <log_parallel@@Base>
    5650:	84 c0                	test   al,al
    5652:	74 76                	je     56ca <TEST_permutation_t_float_trans____1+0x1f1b>
    5654:	48 8b 85 f8 fd ff ff 	mov    rax,QWORD PTR [rbp-0x208]
    565b:	48 8b 15 c6 b9 00 00 	mov    rdx,QWORD PTR [rip+0xb9c6]        # 11028 <stdout@GLIBC_2.2.5>
    5662:	48 89 d6             	mov    rsi,rdx
    5665:	48 89 c7             	mov    rdi,rax
    5668:	e8 73 cd ff ff       	call   23e0 <fputs@plt>
    566d:	48 83 bd 30 ff ff ff 	cmp    QWORD PTR [rbp-0xd0],0x0
    5674:	00 
    5675:	0f 88 30 01 00 00    	js     57ab <TEST_permutation_t_float_trans____1+0x1ffc>
    567b:	48 8b 85 f8 fd ff ff 	mov    rax,QWORD PTR [rbp-0x208]
    5682:	48 8b 0d a7 b9 00 00 	mov    rcx,QWORD PTR [rip+0xb9a7]        # 11030 <f_ou_th@@Base>
    5689:	48 8b 95 30 ff ff ff 	mov    rdx,QWORD PTR [rbp-0xd0]
    5690:	48 c1 e2 03          	shl    rdx,0x3
    5694:	48 01 ca             	add    rdx,rcx
    5697:	48 8b 12             	mov    rdx,QWORD PTR [rdx]
    569a:	48 89 d6             	mov    rsi,rdx
    569d:	48 89 c7             	mov    rdi,rax
    56a0:	e8 3b cd ff ff       	call   23e0 <fputs@plt>
    56a5:	48 8b 15 84 b9 00 00 	mov    rdx,QWORD PTR [rip+0xb984]        # 11030 <f_ou_th@@Base>
    56ac:	48 8b 85 30 ff ff ff 	mov    rax,QWORD PTR [rbp-0xd0]
    56b3:	48 c1 e0 03          	shl    rax,0x3
    56b7:	48 01 d0             	add    rax,rdx
    56ba:	48 8b 00             	mov    rax,QWORD PTR [rax]
    56bd:	48 89 c7             	mov    rdi,rax
    56c0:	e8 cb cd ff ff       	call   2490 <fflush@plt>
    56c5:	e9 e1 00 00 00       	jmp    57ab <TEST_permutation_t_float_trans____1+0x1ffc>
    56ca:	48 83 bd 30 ff ff ff 	cmp    QWORD PTR [rbp-0xd0],0x0
    56d1:	00 
    56d2:	78 4f                	js     5723 <TEST_permutation_t_float_trans____1+0x1f74>
    56d4:	48 8b 85 f8 fd ff ff 	mov    rax,QWORD PTR [rbp-0x208]
    56db:	48 8b 0d 4e b9 00 00 	mov    rcx,QWORD PTR [rip+0xb94e]        # 11030 <f_ou_th@@Base>
    56e2:	48 8b 95 30 ff ff ff 	mov    rdx,QWORD PTR [rbp-0xd0]
    56e9:	48 c1 e2 03          	shl    rdx,0x3
    56ed:	48 01 ca             	add    rdx,rcx
    56f0:	48 8b 12             	mov    rdx,QWORD PTR [rdx]
    56f3:	48 89 d6             	mov    rsi,rdx
    56f6:	48 89 c7             	mov    rdi,rax
    56f9:	e8 e2 cc ff ff       	call   23e0 <fputs@plt>
    56fe:	48 8b 15 2b b9 00 00 	mov    rdx,QWORD PTR [rip+0xb92b]        # 11030 <f_ou_th@@Base>
    5705:	48 8b 85 30 ff ff ff 	mov    rax,QWORD PTR [rbp-0xd0]
    570c:	48 c1 e0 03          	shl    rax,0x3
    5710:	48 01 d0             	add    rax,rdx
    5713:	48 8b 00             	mov    rax,QWORD PTR [rax]
    5716:	48 89 c7             	mov    rdi,rax
    5719:	e8 72 cd ff ff       	call   2490 <fflush@plt>
    571e:	e9 88 00 00 00       	jmp    57ab <TEST_permutation_t_float_trans____1+0x1ffc>
    5723:	48 8b 85 f8 fd ff ff 	mov    rax,QWORD PTR [rbp-0x208]
    572a:	48 8b 15 f7 b8 00 00 	mov    rdx,QWORD PTR [rip+0xb8f7]        # 11028 <stdout@GLIBC_2.2.5>
    5731:	48 89 d6             	mov    rsi,rdx
    5734:	48 89 c7             	mov    rdi,rax
    5737:	e8 a4 cc ff ff       	call   23e0 <fputs@plt>
    573c:	eb 6d                	jmp    57ab <TEST_permutation_t_float_trans____1+0x1ffc>
    573e:	48 8b 05 f3 b8 00 00 	mov    rax,QWORD PTR [rip+0xb8f3]        # 11038 <savelog@@Base>
    5745:	48 85 c0             	test   rax,rax
    5748:	74 48                	je     5792 <TEST_permutation_t_float_trans____1+0x1fe3>
    574a:	48 8b 05 e7 b8 00 00 	mov    rax,QWORD PTR [rip+0xb8e7]        # 11038 <savelog@@Base>
    5751:	48 8d 15 27 89 00 00 	lea    rdx,[rip+0x8927]        # e07f <_IO_stdin_used+0x7f>
    5758:	48 89 d6             	mov    rsi,rdx
    575b:	48 89 c7             	mov    rdi,rax
    575e:	e8 9d cd ff ff       	call   2500 <fopen@plt>
    5763:	48 89 85 28 ff ff ff 	mov    QWORD PTR [rbp-0xd8],rax
    576a:	48 8b 85 f8 fd ff ff 	mov    rax,QWORD PTR [rbp-0x208]
    5771:	48 8b 95 28 ff ff ff 	mov    rdx,QWORD PTR [rbp-0xd8]
    5778:	48 89 d6             	mov    rsi,rdx
    577b:	48 89 c7             	mov    rdi,rax
    577e:	e8 5d cc ff ff       	call   23e0 <fputs@plt>
    5783:	48 8b 85 28 ff ff ff 	mov    rax,QWORD PTR [rbp-0xd8]
    578a:	48 89 c7             	mov    rdi,rax
    578d:	e8 1e cc ff ff       	call   23b0 <fclose@plt>
    5792:	48 8b 85 f8 fd ff ff 	mov    rax,QWORD PTR [rbp-0x208]
    5799:	48 8b 15 88 b8 00 00 	mov    rdx,QWORD PTR [rip+0xb888]        # 11028 <stdout@GLIBC_2.2.5>
    57a0:	48 89 d6             	mov    rsi,rdx
    57a3:	48 89 c7             	mov    rdi,rax
    57a6:	e8 35 cc ff ff       	call   23e0 <fputs@plt>
    57ab:	48 8b 85 20 ff ff ff 	mov    rax,QWORD PTR [rbp-0xe0]
    57b2:	48 89 c7             	mov    rdi,rax
    57b5:	e8 f6 cb ff ff       	call   23b0 <fclose@plt>
    57ba:	48 8b 85 f8 fd ff ff 	mov    rax,QWORD PTR [rbp-0x208]
    57c1:	48 89 c7             	mov    rdi,rax
    57c4:	e8 67 cb ff ff       	call   2330 <free@plt>
    57c9:	48 8d 95 f0 fd ff ff 	lea    rdx,[rbp-0x210]
    57d0:	48 8d 85 f8 fd ff ff 	lea    rax,[rbp-0x208]
    57d7:	48 89 d6             	mov    rsi,rdx
    57da:	48 89 c7             	mov    rdi,rax
    57dd:	e8 6e cb ff ff       	call   2350 <open_memstream@plt>
    57e2:	48 89 85 38 ff ff ff 	mov    QWORD PTR [rbp-0xc8],rax
    57e9:	48 83 bd 38 ff ff ff 	cmp    QWORD PTR [rbp-0xc8],0x0
    57f0:	00 
    57f1:	75 38                	jne    582b <TEST_permutation_t_float_trans____1+0x207c>
    57f3:	48 8b 05 06 b9 00 00 	mov    rax,QWORD PTR [rip+0xb906]        # 11100 <stderr@GLIBC_2.2.5>
    57fa:	4c 8d 05 1f 8b 00 00 	lea    r8,[rip+0x8b1f]        # e320 <__func__.3>
    5801:	b9 34 00 00 00       	mov    ecx,0x34
    5806:	48 8d 15 37 88 00 00 	lea    rdx,[rip+0x8837]        # e044 <_IO_stdin_used+0x44>
    580d:	48 8d 35 3c 88 00 00 	lea    rsi,[rip+0x883c]        # e050 <_IO_stdin_used+0x50>
    5814:	48 89 c7             	mov    rdi,rax
    5817:	b8 00 00 00 00       	mov    eax,0x0
    581c:	e8 3f cc ff ff       	call   2460 <fprintf@plt>
    5821:	bf 00 00 00 00       	mov    edi,0x0
    5826:	e8 f5 cc ff ff       	call   2520 <exit@plt>
    582b:	8b 05 6f b8 00 00    	mov    eax,DWORD PTR [rip+0xb86f]        # 110a0 <k_DEFAULT@@Base>
    5831:	48 98                	cdqe   
    5833:	48 8d 14 c5 00 00 00 	lea    rdx,[rax*8+0x0]
    583a:	00 
    583b:	48 8d 05 7e b8 00 00 	lea    rax,[rip+0xb87e]        # 110c0 <colors_f@@Base>
    5842:	48 8b 34 02          	mov    rsi,QWORD PTR [rdx+rax*1]
    5846:	8b 05 34 b8 00 00    	mov    eax,DWORD PTR [rip+0xb834]        # 11080 <hk_TR@@Base>
    584c:	48 98                	cdqe   
    584e:	48 8d 14 c5 00 00 00 	lea    rdx,[rax*8+0x0]
    5855:	00 
    5856:	48 8d 05 e3 b7 00 00 	lea    rax,[rip+0xb7e3]        # 11040 <tab_hk_f@@Base>
    585d:	48 8b 0c 02          	mov    rcx,QWORD PTR [rdx+rax*1]
    5861:	8b 05 1d b8 00 00    	mov    eax,DWORD PTR [rip+0xb81d]        # 11084 <k_RED@@Base>
    5867:	48 98                	cdqe   
    5869:	48 8d 14 c5 00 00 00 	lea    rdx,[rax*8+0x0]
    5870:	00 
    5871:	48 8d 05 48 b8 00 00 	lea    rax,[rip+0xb848]        # 110c0 <colors_f@@Base>
    5878:	48 8b 14 02          	mov    rdx,QWORD PTR [rdx+rax*1]
    587c:	48 8b 85 38 ff ff ff 	mov    rax,QWORD PTR [rbp-0xc8]
    5883:	4c 8d 0d 96 8a 00 00 	lea    r9,[rip+0x8a96]        # e320 <__func__.3>
    588a:	49 89 f0             	mov    r8,rsi
    588d:	48 8d 35 74 88 00 00 	lea    rsi,[rip+0x8874]        # e108 <_IO_stdin_used+0x108>
    5894:	48 89 c7             	mov    rdi,rax
    5897:	b8 00 00 00 00       	mov    eax,0x0
    589c:	e8 bf cb ff ff       	call   2460 <fprintf@plt>
    58a1:	48 8b 85 38 ff ff ff 	mov    rax,QWORD PTR [rbp-0xc8]
    58a8:	48 89 c7             	mov    rdi,rax
    58ab:	e8 e0 cb ff ff       	call   2490 <fflush@plt>
    58b0:	0f b6 05 d9 b7 00 00 	movzx  eax,BYTE PTR [rip+0xb7d9]        # 11090 <is_parallel_nb@@Base>
    58b7:	84 c0                	test   al,al
    58b9:	0f 84 01 01 00 00    	je     59c0 <TEST_permutation_t_float_trans____1+0x2211>
    58bf:	e8 8c cb ff ff       	call   2450 <id_of_thread_executed@plt>
    58c4:	48 89 85 48 ff ff ff 	mov    QWORD PTR [rbp-0xb8],rax
    58cb:	0f b6 05 4e b7 00 00 	movzx  eax,BYTE PTR [rip+0xb74e]        # 11020 <log_parallel@@Base>
    58d2:	84 c0                	test   al,al
    58d4:	74 76                	je     594c <TEST_permutation_t_float_trans____1+0x219d>
    58d6:	48 8b 85 f8 fd ff ff 	mov    rax,QWORD PTR [rbp-0x208]
    58dd:	48 8b 15 44 b7 00 00 	mov    rdx,QWORD PTR [rip+0xb744]        # 11028 <stdout@GLIBC_2.2.5>
    58e4:	48 89 d6             	mov    rsi,rdx
    58e7:	48 89 c7             	mov    rdi,rax
    58ea:	e8 f1 ca ff ff       	call   23e0 <fputs@plt>
    58ef:	48 83 bd 48 ff ff ff 	cmp    QWORD PTR [rbp-0xb8],0x0
    58f6:	00 
    58f7:	0f 88 30 01 00 00    	js     5a2d <TEST_permutation_t_float_trans____1+0x227e>
    58fd:	48 8b 85 f8 fd ff ff 	mov    rax,QWORD PTR [rbp-0x208]
    5904:	48 8b 0d 25 b7 00 00 	mov    rcx,QWORD PTR [rip+0xb725]        # 11030 <f_ou_th@@Base>
    590b:	48 8b 95 48 ff ff ff 	mov    rdx,QWORD PTR [rbp-0xb8]
    5912:	48 c1 e2 03          	shl    rdx,0x3
    5916:	48 01 ca             	add    rdx,rcx
    5919:	48 8b 12             	mov    rdx,QWORD PTR [rdx]
    591c:	48 89 d6             	mov    rsi,rdx
    591f:	48 89 c7             	mov    rdi,rax
    5922:	e8 b9 ca ff ff       	call   23e0 <fputs@plt>
    5927:	48 8b 15 02 b7 00 00 	mov    rdx,QWORD PTR [rip+0xb702]        # 11030 <f_ou_th@@Base>
    592e:	48 8b 85 48 ff ff ff 	mov    rax,QWORD PTR [rbp-0xb8]
    5935:	48 c1 e0 03          	shl    rax,0x3
    5939:	48 01 d0             	add    rax,rdx
    593c:	48 8b 00             	mov    rax,QWORD PTR [rax]
    593f:	48 89 c7             	mov    rdi,rax
    5942:	e8 49 cb ff ff       	call   2490 <fflush@plt>
    5947:	e9 e1 00 00 00       	jmp    5a2d <TEST_permutation_t_float_trans____1+0x227e>
    594c:	48 83 bd 48 ff ff ff 	cmp    QWORD PTR [rbp-0xb8],0x0
    5953:	00 
    5954:	78 4f                	js     59a5 <TEST_permutation_t_float_trans____1+0x21f6>
    5956:	48 8b 85 f8 fd ff ff 	mov    rax,QWORD PTR [rbp-0x208]
    595d:	48 8b 0d cc b6 00 00 	mov    rcx,QWORD PTR [rip+0xb6cc]        # 11030 <f_ou_th@@Base>
    5964:	48 8b 95 48 ff ff ff 	mov    rdx,QWORD PTR [rbp-0xb8]
    596b:	48 c1 e2 03          	shl    rdx,0x3
    596f:	48 01 ca             	add    rdx,rcx
    5972:	48 8b 12             	mov    rdx,QWORD PTR [rdx]
    5975:	48 89 d6             	mov    rsi,rdx
    5978:	48 89 c7             	mov    rdi,rax
    597b:	e8 60 ca ff ff       	call   23e0 <fputs@plt>
    5980:	48 8b 15 a9 b6 00 00 	mov    rdx,QWORD PTR [rip+0xb6a9]        # 11030 <f_ou_th@@Base>
    5987:	48 8b 85 48 ff ff ff 	mov    rax,QWORD PTR [rbp-0xb8]
    598e:	48 c1 e0 03          	shl    rax,0x3
    5992:	48 01 d0             	add    rax,rdx
    5995:	48 8b 00             	mov    rax,QWORD PTR [rax]
    5998:	48 89 c7             	mov    rdi,rax
    599b:	e8 f0 ca ff ff       	call   2490 <fflush@plt>
    59a0:	e9 88 00 00 00       	jmp    5a2d <TEST_permutation_t_float_trans____1+0x227e>
    59a5:	48 8b 85 f8 fd ff ff 	mov    rax,QWORD PTR [rbp-0x208]
    59ac:	48 8b 15 75 b6 00 00 	mov    rdx,QWORD PTR [rip+0xb675]        # 11028 <stdout@GLIBC_2.2.5>
    59b3:	48 89 d6             	mov    rsi,rdx
    59b6:	48 89 c7             	mov    rdi,rax
    59b9:	e8 22 ca ff ff       	call   23e0 <fputs@plt>
    59be:	eb 6d                	jmp    5a2d <TEST_permutation_t_float_trans____1+0x227e>
    59c0:	48 8b 05 71 b6 00 00 	mov    rax,QWORD PTR [rip+0xb671]        # 11038 <savelog@@Base>
    59c7:	48 85 c0             	test   rax,rax
    59ca:	74 48                	je     5a14 <TEST_permutation_t_float_trans____1+0x2265>
    59cc:	48 8b 05 65 b6 00 00 	mov    rax,QWORD PTR [rip+0xb665]        # 11038 <savelog@@Base>
    59d3:	48 8d 15 a5 86 00 00 	lea    rdx,[rip+0x86a5]        # e07f <_IO_stdin_used+0x7f>
    59da:	48 89 d6             	mov    rsi,rdx
    59dd:	48 89 c7             	mov    rdi,rax
    59e0:	e8 1b cb ff ff       	call   2500 <fopen@plt>
    59e5:	48 89 85 40 ff ff ff 	mov    QWORD PTR [rbp-0xc0],rax
    59ec:	48 8b 85 f8 fd ff ff 	mov    rax,QWORD PTR [rbp-0x208]
    59f3:	48 8b 95 40 ff ff ff 	mov    rdx,QWORD PTR [rbp-0xc0]
    59fa:	48 89 d6             	mov    rsi,rdx
    59fd:	48 89 c7             	mov    rdi,rax
    5a00:	e8 db c9 ff ff       	call   23e0 <fputs@plt>
    5a05:	48 8b 85 40 ff ff ff 	mov    rax,QWORD PTR [rbp-0xc0]
    5a0c:	48 89 c7             	mov    rdi,rax
    5a0f:	e8 9c c9 ff ff       	call   23b0 <fclose@plt>
    5a14:	48 8b 85 f8 fd ff ff 	mov    rax,QWORD PTR [rbp-0x208]
    5a1b:	48 8b 15 06 b6 00 00 	mov    rdx,QWORD PTR [rip+0xb606]        # 11028 <stdout@GLIBC_2.2.5>
    5a22:	48 89 d6             	mov    rsi,rdx
    5a25:	48 89 c7             	mov    rdi,rax
    5a28:	e8 b3 c9 ff ff       	call   23e0 <fputs@plt>
    5a2d:	48 8b 85 38 ff ff ff 	mov    rax,QWORD PTR [rbp-0xc8]
    5a34:	48 89 c7             	mov    rdi,rax
    5a37:	e8 74 c9 ff ff       	call   23b0 <fclose@plt>
    5a3c:	48 8b 85 f8 fd ff ff 	mov    rax,QWORD PTR [rbp-0x208]
    5a43:	48 89 c7             	mov    rdi,rax
    5a46:	e8 e5 c8 ff ff       	call   2330 <free@plt>
    5a4b:	48 83 85 00 fe ff ff 	add    QWORD PTR [rbp-0x200],0x1
    5a52:	01 
    5a53:	48 8b 85 b8 fe ff ff 	mov    rax,QWORD PTR [rbp-0x148]
    5a5a:	48 8b 00             	mov    rax,QWORD PTR [rax]
    5a5d:	48 39 85 00 fe ff ff 	cmp    QWORD PTR [rbp-0x200],rax
    5a64:	0f 82 48 f0 ff ff    	jb     4ab2 <TEST_permutation_t_float_trans____1+0x1303>
    5a6a:	c7 85 e4 fd ff ff 00 	mov    DWORD PTR [rbp-0x21c],0x0
    5a71:	00 00 00 
    5a74:	e9 51 02 00 00       	jmp    5cca <TEST_permutation_t_float_trans____1+0x251b>
    5a79:	48 8d 95 f0 fd ff ff 	lea    rdx,[rbp-0x210]
    5a80:	48 8d 85 f8 fd ff ff 	lea    rax,[rbp-0x208]
    5a87:	48 89 d6             	mov    rsi,rdx
    5a8a:	48 89 c7             	mov    rdi,rax
    5a8d:	e8 be c8 ff ff       	call   2350 <open_memstream@plt>
    5a92:	48 89 85 08 ff ff ff 	mov    QWORD PTR [rbp-0xf8],rax
    5a99:	48 83 bd 08 ff ff ff 	cmp    QWORD PTR [rbp-0xf8],0x0
    5aa0:	00 
    5aa1:	75 38                	jne    5adb <TEST_permutation_t_float_trans____1+0x232c>
    5aa3:	48 8b 05 56 b6 00 00 	mov    rax,QWORD PTR [rip+0xb656]        # 11100 <stderr@GLIBC_2.2.5>
    5aaa:	4c 8d 05 6f 88 00 00 	lea    r8,[rip+0x886f]        # e320 <__func__.3>
    5ab1:	b9 37 00 00 00       	mov    ecx,0x37
    5ab6:	48 8d 15 87 85 00 00 	lea    rdx,[rip+0x8587]        # e044 <_IO_stdin_used+0x44>
    5abd:	48 8d 35 8c 85 00 00 	lea    rsi,[rip+0x858c]        # e050 <_IO_stdin_used+0x50>
    5ac4:	48 89 c7             	mov    rdi,rax
    5ac7:	b8 00 00 00 00       	mov    eax,0x0
    5acc:	e8 8f c9 ff ff       	call   2460 <fprintf@plt>
    5ad1:	bf 00 00 00 00       	mov    edi,0x0
    5ad6:	e8 45 ca ff ff       	call   2520 <exit@plt>
    5adb:	48 8b 85 b8 fe ff ff 	mov    rax,QWORD PTR [rbp-0x148]
    5ae2:	48 8b 50 10          	mov    rdx,QWORD PTR [rax+0x10]
    5ae6:	8b 85 e4 fd ff ff    	mov    eax,DWORD PTR [rbp-0x21c]
    5aec:	48 98                	cdqe   
    5aee:	48 c1 e0 03          	shl    rax,0x3
    5af2:	48 01 d0             	add    rax,rdx
    5af5:	48 8b 08             	mov    rcx,QWORD PTR [rax]
    5af8:	8b 95 e4 fd ff ff    	mov    edx,DWORD PTR [rbp-0x21c]
    5afe:	48 8b 85 08 ff ff ff 	mov    rax,QWORD PTR [rbp-0xf8]
    5b05:	48 8d 35 6a 86 00 00 	lea    rsi,[rip+0x866a]        # e176 <_IO_stdin_used+0x176>
    5b0c:	48 89 c7             	mov    rdi,rax
    5b0f:	b8 00 00 00 00       	mov    eax,0x0
    5b14:	e8 47 c9 ff ff       	call   2460 <fprintf@plt>
    5b19:	48 8b 85 08 ff ff ff 	mov    rax,QWORD PTR [rbp-0xf8]
    5b20:	48 89 c7             	mov    rdi,rax
    5b23:	e8 68 c9 ff ff       	call   2490 <fflush@plt>
    5b28:	0f b6 05 61 b5 00 00 	movzx  eax,BYTE PTR [rip+0xb561]        # 11090 <is_parallel_nb@@Base>
    5b2f:	84 c0                	test   al,al
    5b31:	0f 84 01 01 00 00    	je     5c38 <TEST_permutation_t_float_trans____1+0x2489>
    5b37:	e8 14 c9 ff ff       	call   2450 <id_of_thread_executed@plt>
    5b3c:	48 89 85 18 ff ff ff 	mov    QWORD PTR [rbp-0xe8],rax
    5b43:	0f b6 05 d6 b4 00 00 	movzx  eax,BYTE PTR [rip+0xb4d6]        # 11020 <log_parallel@@Base>
    5b4a:	84 c0                	test   al,al
    5b4c:	74 76                	je     5bc4 <TEST_permutation_t_float_trans____1+0x2415>
    5b4e:	48 8b 85 f8 fd ff ff 	mov    rax,QWORD PTR [rbp-0x208]
    5b55:	48 8b 15 cc b4 00 00 	mov    rdx,QWORD PTR [rip+0xb4cc]        # 11028 <stdout@GLIBC_2.2.5>
    5b5c:	48 89 d6             	mov    rsi,rdx
    5b5f:	48 89 c7             	mov    rdi,rax
    5b62:	e8 79 c8 ff ff       	call   23e0 <fputs@plt>
    5b67:	48 83 bd 18 ff ff ff 	cmp    QWORD PTR [rbp-0xe8],0x0
    5b6e:	00 
    5b6f:	0f 88 30 01 00 00    	js     5ca5 <TEST_permutation_t_float_trans____1+0x24f6>
    5b75:	48 8b 85 f8 fd ff ff 	mov    rax,QWORD PTR [rbp-0x208]
    5b7c:	48 8b 0d ad b4 00 00 	mov    rcx,QWORD PTR [rip+0xb4ad]        # 11030 <f_ou_th@@Base>
    5b83:	48 8b 95 18 ff ff ff 	mov    rdx,QWORD PTR [rbp-0xe8]
    5b8a:	48 c1 e2 03          	shl    rdx,0x3
    5b8e:	48 01 ca             	add    rdx,rcx
    5b91:	48 8b 12             	mov    rdx,QWORD PTR [rdx]
    5b94:	48 89 d6             	mov    rsi,rdx
    5b97:	48 89 c7             	mov    rdi,rax
    5b9a:	e8 41 c8 ff ff       	call   23e0 <fputs@plt>
    5b9f:	48 8b 15 8a b4 00 00 	mov    rdx,QWORD PTR [rip+0xb48a]        # 11030 <f_ou_th@@Base>
    5ba6:	48 8b 85 18 ff ff ff 	mov    rax,QWORD PTR [rbp-0xe8]
    5bad:	48 c1 e0 03          	shl    rax,0x3
    5bb1:	48 01 d0             	add    rax,rdx
    5bb4:	48 8b 00             	mov    rax,QWORD PTR [rax]
    5bb7:	48 89 c7             	mov    rdi,rax
    5bba:	e8 d1 c8 ff ff       	call   2490 <fflush@plt>
    5bbf:	e9 e1 00 00 00       	jmp    5ca5 <TEST_permutation_t_float_trans____1+0x24f6>
    5bc4:	48 83 bd 18 ff ff ff 	cmp    QWORD PTR [rbp-0xe8],0x0
    5bcb:	00 
    5bcc:	78 4f                	js     5c1d <TEST_permutation_t_float_trans____1+0x246e>
    5bce:	48 8b 85 f8 fd ff ff 	mov    rax,QWORD PTR [rbp-0x208]
    5bd5:	48 8b 0d 54 b4 00 00 	mov    rcx,QWORD PTR [rip+0xb454]        # 11030 <f_ou_th@@Base>
    5bdc:	48 8b 95 18 ff ff ff 	mov    rdx,QWORD PTR [rbp-0xe8]
    5be3:	48 c1 e2 03          	shl    rdx,0x3
    5be7:	48 01 ca             	add    rdx,rcx
    5bea:	48 8b 12             	mov    rdx,QWORD PTR [rdx]
    5bed:	48 89 d6             	mov    rsi,rdx
    5bf0:	48 89 c7             	mov    rdi,rax
    5bf3:	e8 e8 c7 ff ff       	call   23e0 <fputs@plt>
    5bf8:	48 8b 15 31 b4 00 00 	mov    rdx,QWORD PTR [rip+0xb431]        # 11030 <f_ou_th@@Base>
    5bff:	48 8b 85 18 ff ff ff 	mov    rax,QWORD PTR [rbp-0xe8]
    5c06:	48 c1 e0 03          	shl    rax,0x3
    5c0a:	48 01 d0             	add    rax,rdx
    5c0d:	48 8b 00             	mov    rax,QWORD PTR [rax]
    5c10:	48 89 c7             	mov    rdi,rax
    5c13:	e8 78 c8 ff ff       	call   2490 <fflush@plt>
    5c18:	e9 88 00 00 00       	jmp    5ca5 <TEST_permutation_t_float_trans____1+0x24f6>
    5c1d:	48 8b 85 f8 fd ff ff 	mov    rax,QWORD PTR [rbp-0x208]
    5c24:	48 8b 15 fd b3 00 00 	mov    rdx,QWORD PTR [rip+0xb3fd]        # 11028 <stdout@GLIBC_2.2.5>
    5c2b:	48 89 d6             	mov    rsi,rdx
    5c2e:	48 89 c7             	mov    rdi,rax
    5c31:	e8 aa c7 ff ff       	call   23e0 <fputs@plt>
    5c36:	eb 6d                	jmp    5ca5 <TEST_permutation_t_float_trans____1+0x24f6>
    5c38:	48 8b 05 f9 b3 00 00 	mov    rax,QWORD PTR [rip+0xb3f9]        # 11038 <savelog@@Base>
    5c3f:	48 85 c0             	test   rax,rax
    5c42:	74 48                	je     5c8c <TEST_permutation_t_float_trans____1+0x24dd>
    5c44:	48 8b 05 ed b3 00 00 	mov    rax,QWORD PTR [rip+0xb3ed]        # 11038 <savelog@@Base>
    5c4b:	48 8d 15 2d 84 00 00 	lea    rdx,[rip+0x842d]        # e07f <_IO_stdin_used+0x7f>
    5c52:	48 89 d6             	mov    rsi,rdx
    5c55:	48 89 c7             	mov    rdi,rax
    5c58:	e8 a3 c8 ff ff       	call   2500 <fopen@plt>
    5c5d:	48 89 85 10 ff ff ff 	mov    QWORD PTR [rbp-0xf0],rax
    5c64:	48 8b 85 f8 fd ff ff 	mov    rax,QWORD PTR [rbp-0x208]
    5c6b:	48 8b 95 10 ff ff ff 	mov    rdx,QWORD PTR [rbp-0xf0]
    5c72:	48 89 d6             	mov    rsi,rdx
    5c75:	48 89 c7             	mov    rdi,rax
    5c78:	e8 63 c7 ff ff       	call   23e0 <fputs@plt>
    5c7d:	48 8b 85 10 ff ff ff 	mov    rax,QWORD PTR [rbp-0xf0]
    5c84:	48 89 c7             	mov    rdi,rax
    5c87:	e8 24 c7 ff ff       	call   23b0 <fclose@plt>
    5c8c:	48 8b 85 f8 fd ff ff 	mov    rax,QWORD PTR [rbp-0x208]
    5c93:	48 8b 15 8e b3 00 00 	mov    rdx,QWORD PTR [rip+0xb38e]        # 11028 <stdout@GLIBC_2.2.5>
    5c9a:	48 89 d6             	mov    rsi,rdx
    5c9d:	48 89 c7             	mov    rdi,rax
    5ca0:	e8 3b c7 ff ff       	call   23e0 <fputs@plt>
    5ca5:	48 8b 85 08 ff ff ff 	mov    rax,QWORD PTR [rbp-0xf8]
    5cac:	48 89 c7             	mov    rdi,rax
    5caf:	e8 fc c6 ff ff       	call   23b0 <fclose@plt>
    5cb4:	48 8b 85 f8 fd ff ff 	mov    rax,QWORD PTR [rbp-0x208]
    5cbb:	48 89 c7             	mov    rdi,rax
    5cbe:	e8 6d c6 ff ff       	call   2330 <free@plt>
    5cc3:	83 85 e4 fd ff ff 01 	add    DWORD PTR [rbp-0x21c],0x1
    5cca:	8b 85 e4 fd ff ff    	mov    eax,DWORD PTR [rbp-0x21c]
    5cd0:	48 63 d0             	movsxd rdx,eax
    5cd3:	48 8b 85 b8 fe ff ff 	mov    rax,QWORD PTR [rbp-0x148]
    5cda:	48 8b 00             	mov    rax,QWORD PTR [rax]
    5cdd:	48 39 c2             	cmp    rdx,rax
    5ce0:	0f 82 93 fd ff ff    	jb     5a79 <TEST_permutation_t_float_trans____1+0x22ca>
    5ce6:	48 8d 95 f0 fd ff ff 	lea    rdx,[rbp-0x210]
    5ced:	48 8d 85 f8 fd ff ff 	lea    rax,[rbp-0x208]
    5cf4:	48 89 d6             	mov    rsi,rdx
    5cf7:	48 89 c7             	mov    rdi,rax
    5cfa:	e8 51 c6 ff ff       	call   2350 <open_memstream@plt>
    5cff:	48 89 85 c0 fe ff ff 	mov    QWORD PTR [rbp-0x140],rax
    5d06:	48 83 bd c0 fe ff ff 	cmp    QWORD PTR [rbp-0x140],0x0
    5d0d:	00 
    5d0e:	75 38                	jne    5d48 <TEST_permutation_t_float_trans____1+0x2599>
    5d10:	48 8b 05 e9 b3 00 00 	mov    rax,QWORD PTR [rip+0xb3e9]        # 11100 <stderr@GLIBC_2.2.5>
    5d17:	4c 8d 05 02 86 00 00 	lea    r8,[rip+0x8602]        # e320 <__func__.3>
    5d1e:	b9 38 00 00 00       	mov    ecx,0x38
    5d23:	48 8d 15 1a 83 00 00 	lea    rdx,[rip+0x831a]        # e044 <_IO_stdin_used+0x44>
    5d2a:	48 8d 35 1f 83 00 00 	lea    rsi,[rip+0x831f]        # e050 <_IO_stdin_used+0x50>
    5d31:	48 89 c7             	mov    rdi,rax
    5d34:	b8 00 00 00 00       	mov    eax,0x0
    5d39:	e8 22 c7 ff ff       	call   2460 <fprintf@plt>
    5d3e:	bf 00 00 00 00       	mov    edi,0x0
    5d43:	e8 d8 c7 ff ff       	call   2520 <exit@plt>
    5d48:	48 8b 85 c0 fe ff ff 	mov    rax,QWORD PTR [rbp-0x140]
    5d4f:	48 89 c6             	mov    rsi,rax
    5d52:	bf 0a 00 00 00       	mov    edi,0xa
    5d57:	e8 c4 c6 ff ff       	call   2420 <fputc@plt>
    5d5c:	48 8b 85 c0 fe ff ff 	mov    rax,QWORD PTR [rbp-0x140]
    5d63:	48 89 c7             	mov    rdi,rax
    5d66:	e8 25 c7 ff ff       	call   2490 <fflush@plt>
    5d6b:	0f b6 05 1e b3 00 00 	movzx  eax,BYTE PTR [rip+0xb31e]        # 11090 <is_parallel_nb@@Base>
    5d72:	84 c0                	test   al,al
    5d74:	0f 84 01 01 00 00    	je     5e7b <TEST_permutation_t_float_trans____1+0x26cc>
    5d7a:	e8 d1 c6 ff ff       	call   2450 <id_of_thread_executed@plt>
    5d7f:	48 89 85 d0 fe ff ff 	mov    QWORD PTR [rbp-0x130],rax
    5d86:	0f b6 05 93 b2 00 00 	movzx  eax,BYTE PTR [rip+0xb293]        # 11020 <log_parallel@@Base>
    5d8d:	84 c0                	test   al,al
    5d8f:	74 76                	je     5e07 <TEST_permutation_t_float_trans____1+0x2658>
    5d91:	48 8b 85 f8 fd ff ff 	mov    rax,QWORD PTR [rbp-0x208]
    5d98:	48 8b 15 89 b2 00 00 	mov    rdx,QWORD PTR [rip+0xb289]        # 11028 <stdout@GLIBC_2.2.5>
    5d9f:	48 89 d6             	mov    rsi,rdx
    5da2:	48 89 c7             	mov    rdi,rax
    5da5:	e8 36 c6 ff ff       	call   23e0 <fputs@plt>
    5daa:	48 83 bd d0 fe ff ff 	cmp    QWORD PTR [rbp-0x130],0x0
    5db1:	00 
    5db2:	0f 88 30 01 00 00    	js     5ee8 <TEST_permutation_t_float_trans____1+0x2739>
    5db8:	48 8b 85 f8 fd ff ff 	mov    rax,QWORD PTR [rbp-0x208]
    5dbf:	48 8b 0d 6a b2 00 00 	mov    rcx,QWORD PTR [rip+0xb26a]        # 11030 <f_ou_th@@Base>
    5dc6:	48 8b 95 d0 fe ff ff 	mov    rdx,QWORD PTR [rbp-0x130]
    5dcd:	48 c1 e2 03          	shl    rdx,0x3
    5dd1:	48 01 ca             	add    rdx,rcx
    5dd4:	48 8b 12             	mov    rdx,QWORD PTR [rdx]
    5dd7:	48 89 d6             	mov    rsi,rdx
    5dda:	48 89 c7             	mov    rdi,rax
    5ddd:	e8 fe c5 ff ff       	call   23e0 <fputs@plt>
    5de2:	48 8b 15 47 b2 00 00 	mov    rdx,QWORD PTR [rip+0xb247]        # 11030 <f_ou_th@@Base>
    5de9:	48 8b 85 d0 fe ff ff 	mov    rax,QWORD PTR [rbp-0x130]
    5df0:	48 c1 e0 03          	shl    rax,0x3
    5df4:	48 01 d0             	add    rax,rdx
    5df7:	48 8b 00             	mov    rax,QWORD PTR [rax]
    5dfa:	48 89 c7             	mov    rdi,rax
    5dfd:	e8 8e c6 ff ff       	call   2490 <fflush@plt>
    5e02:	e9 e1 00 00 00       	jmp    5ee8 <TEST_permutation_t_float_trans____1+0x2739>
    5e07:	48 83 bd d0 fe ff ff 	cmp    QWORD PTR [rbp-0x130],0x0
    5e0e:	00 
    5e0f:	78 4f                	js     5e60 <TEST_permutation_t_float_trans____1+0x26b1>
    5e11:	48 8b 85 f8 fd ff ff 	mov    rax,QWORD PTR [rbp-0x208]
    5e18:	48 8b 0d 11 b2 00 00 	mov    rcx,QWORD PTR [rip+0xb211]        # 11030 <f_ou_th@@Base>
    5e1f:	48 8b 95 d0 fe ff ff 	mov    rdx,QWORD PTR [rbp-0x130]
    5e26:	48 c1 e2 03          	shl    rdx,0x3
    5e2a:	48 01 ca             	add    rdx,rcx
    5e2d:	48 8b 12             	mov    rdx,QWORD PTR [rdx]
    5e30:	48 89 d6             	mov    rsi,rdx
    5e33:	48 89 c7             	mov    rdi,rax
    5e36:	e8 a5 c5 ff ff       	call   23e0 <fputs@plt>
    5e3b:	48 8b 15 ee b1 00 00 	mov    rdx,QWORD PTR [rip+0xb1ee]        # 11030 <f_ou_th@@Base>
    5e42:	48 8b 85 d0 fe ff ff 	mov    rax,QWORD PTR [rbp-0x130]
    5e49:	48 c1 e0 03          	shl    rax,0x3
    5e4d:	48 01 d0             	add    rax,rdx
    5e50:	48 8b 00             	mov    rax,QWORD PTR [rax]
    5e53:	48 89 c7             	mov    rdi,rax
    5e56:	e8 35 c6 ff ff       	call   2490 <fflush@plt>
    5e5b:	e9 88 00 00 00       	jmp    5ee8 <TEST_permutation_t_float_trans____1+0x2739>
    5e60:	48 8b 85 f8 fd ff ff 	mov    rax,QWORD PTR [rbp-0x208]
    5e67:	48 8b 15 ba b1 00 00 	mov    rdx,QWORD PTR [rip+0xb1ba]        # 11028 <stdout@GLIBC_2.2.5>
    5e6e:	48 89 d6             	mov    rsi,rdx
    5e71:	48 89 c7             	mov    rdi,rax
    5e74:	e8 67 c5 ff ff       	call   23e0 <fputs@plt>
    5e79:	eb 6d                	jmp    5ee8 <TEST_permutation_t_float_trans____1+0x2739>
    5e7b:	48 8b 05 b6 b1 00 00 	mov    rax,QWORD PTR [rip+0xb1b6]        # 11038 <savelog@@Base>
    5e82:	48 85 c0             	test   rax,rax
    5e85:	74 48                	je     5ecf <TEST_permutation_t_float_trans____1+0x2720>
    5e87:	48 8b 05 aa b1 00 00 	mov    rax,QWORD PTR [rip+0xb1aa]        # 11038 <savelog@@Base>
    5e8e:	48 8d 15 ea 81 00 00 	lea    rdx,[rip+0x81ea]        # e07f <_IO_stdin_used+0x7f>
    5e95:	48 89 d6             	mov    rsi,rdx
    5e98:	48 89 c7             	mov    rdi,rax
    5e9b:	e8 60 c6 ff ff       	call   2500 <fopen@plt>
    5ea0:	48 89 85 c8 fe ff ff 	mov    QWORD PTR [rbp-0x138],rax
    5ea7:	48 8b 85 f8 fd ff ff 	mov    rax,QWORD PTR [rbp-0x208]
    5eae:	48 8b 95 c8 fe ff ff 	mov    rdx,QWORD PTR [rbp-0x138]
    5eb5:	48 89 d6             	mov    rsi,rdx
    5eb8:	48 89 c7             	mov    rdi,rax
    5ebb:	e8 20 c5 ff ff       	call   23e0 <fputs@plt>
    5ec0:	48 8b 85 c8 fe ff ff 	mov    rax,QWORD PTR [rbp-0x138]
    5ec7:	48 89 c7             	mov    rdi,rax
    5eca:	e8 e1 c4 ff ff       	call   23b0 <fclose@plt>
    5ecf:	48 8b 85 f8 fd ff ff 	mov    rax,QWORD PTR [rbp-0x208]
    5ed6:	48 8b 15 4b b1 00 00 	mov    rdx,QWORD PTR [rip+0xb14b]        # 11028 <stdout@GLIBC_2.2.5>
    5edd:	48 89 d6             	mov    rsi,rdx
    5ee0:	48 89 c7             	mov    rdi,rax
    5ee3:	e8 f8 c4 ff ff       	call   23e0 <fputs@plt>
    5ee8:	48 8b 85 c0 fe ff ff 	mov    rax,QWORD PTR [rbp-0x140]
    5eef:	48 89 c7             	mov    rdi,rax
    5ef2:	e8 b9 c4 ff ff       	call   23b0 <fclose@plt>
    5ef7:	48 8b 85 f8 fd ff ff 	mov    rax,QWORD PTR [rbp-0x208]
    5efe:	48 89 c7             	mov    rdi,rax
    5f01:	e8 2a c4 ff ff       	call   2330 <free@plt>
    5f06:	c7 85 e8 fd ff ff 00 	mov    DWORD PTR [rbp-0x218],0x0
    5f0d:	00 00 00 
    5f10:	e9 67 02 00 00       	jmp    617c <TEST_permutation_t_float_trans____1+0x29cd>
    5f15:	48 8d 95 f0 fd ff ff 	lea    rdx,[rbp-0x210]
    5f1c:	48 8d 85 f8 fd ff ff 	lea    rax,[rbp-0x208]
    5f23:	48 89 d6             	mov    rsi,rdx
    5f26:	48 89 c7             	mov    rdi,rax
    5f29:	e8 22 c4 ff ff       	call   2350 <open_memstream@plt>
    5f2e:	48 89 85 f0 fe ff ff 	mov    QWORD PTR [rbp-0x110],rax
    5f35:	48 83 bd f0 fe ff ff 	cmp    QWORD PTR [rbp-0x110],0x0
    5f3c:	00 
    5f3d:	75 38                	jne    5f77 <TEST_permutation_t_float_trans____1+0x27c8>
    5f3f:	48 8b 05 ba b1 00 00 	mov    rax,QWORD PTR [rip+0xb1ba]        # 11100 <stderr@GLIBC_2.2.5>
    5f46:	4c 8d 05 d3 83 00 00 	lea    r8,[rip+0x83d3]        # e320 <__func__.3>
    5f4d:	b9 39 00 00 00       	mov    ecx,0x39
    5f52:	48 8d 15 eb 80 00 00 	lea    rdx,[rip+0x80eb]        # e044 <_IO_stdin_used+0x44>
    5f59:	48 8d 35 f0 80 00 00 	lea    rsi,[rip+0x80f0]        # e050 <_IO_stdin_used+0x50>
    5f60:	48 89 c7             	mov    rdi,rax
    5f63:	b8 00 00 00 00       	mov    eax,0x0
    5f68:	e8 f3 c4 ff ff       	call   2460 <fprintf@plt>
    5f6d:	bf 00 00 00 00       	mov    edi,0x0
    5f72:	e8 a9 c5 ff ff       	call   2520 <exit@plt>
    5f77:	48 8b 85 08 fe ff ff 	mov    rax,QWORD PTR [rbp-0x1f8]
    5f7e:	48 8b 50 10          	mov    rdx,QWORD PTR [rax+0x10]
    5f82:	8b 85 e8 fd ff ff    	mov    eax,DWORD PTR [rbp-0x218]
    5f88:	48 98                	cdqe   
    5f8a:	48 c1 e0 02          	shl    rax,0x2
    5f8e:	48 01 d0             	add    rax,rdx
    5f91:	f3 0f 10 00          	movss  xmm0,DWORD PTR [rax]
    5f95:	66 0f ef c9          	pxor   xmm1,xmm1
    5f99:	f3 0f 5a c8          	cvtss2sd xmm1,xmm0
    5f9d:	66 48 0f 7e c9       	movq   rcx,xmm1
    5fa2:	8b 95 e8 fd ff ff    	mov    edx,DWORD PTR [rbp-0x218]
    5fa8:	48 8b 85 f0 fe ff ff 	mov    rax,QWORD PTR [rbp-0x110]
    5faf:	66 48 0f 6e c1       	movq   xmm0,rcx
    5fb4:	48 8d 0d c9 81 00 00 	lea    rcx,[rip+0x81c9]        # e184 <_IO_stdin_used+0x184>
    5fbb:	48 89 ce             	mov    rsi,rcx
    5fbe:	48 89 c7             	mov    rdi,rax
    5fc1:	b8 01 00 00 00       	mov    eax,0x1
    5fc6:	e8 95 c4 ff ff       	call   2460 <fprintf@plt>
    5fcb:	48 8b 85 f0 fe ff ff 	mov    rax,QWORD PTR [rbp-0x110]
    5fd2:	48 89 c7             	mov    rdi,rax
    5fd5:	e8 b6 c4 ff ff       	call   2490 <fflush@plt>
    5fda:	0f b6 05 af b0 00 00 	movzx  eax,BYTE PTR [rip+0xb0af]        # 11090 <is_parallel_nb@@Base>
    5fe1:	84 c0                	test   al,al
    5fe3:	0f 84 01 01 00 00    	je     60ea <TEST_permutation_t_float_trans____1+0x293b>
    5fe9:	e8 62 c4 ff ff       	call   2450 <id_of_thread_executed@plt>
    5fee:	48 89 85 00 ff ff ff 	mov    QWORD PTR [rbp-0x100],rax
    5ff5:	0f b6 05 24 b0 00 00 	movzx  eax,BYTE PTR [rip+0xb024]        # 11020 <log_parallel@@Base>
    5ffc:	84 c0                	test   al,al
    5ffe:	74 76                	je     6076 <TEST_permutation_t_float_trans____1+0x28c7>
    6000:	48 8b 85 f8 fd ff ff 	mov    rax,QWORD PTR [rbp-0x208]
    6007:	48 8b 15 1a b0 00 00 	mov    rdx,QWORD PTR [rip+0xb01a]        # 11028 <stdout@GLIBC_2.2.5>
    600e:	48 89 d6             	mov    rsi,rdx
    6011:	48 89 c7             	mov    rdi,rax
    6014:	e8 c7 c3 ff ff       	call   23e0 <fputs@plt>
    6019:	48 83 bd 00 ff ff ff 	cmp    QWORD PTR [rbp-0x100],0x0
    6020:	00 
    6021:	0f 88 30 01 00 00    	js     6157 <TEST_permutation_t_float_trans____1+0x29a8>
    6027:	48 8b 85 f8 fd ff ff 	mov    rax,QWORD PTR [rbp-0x208]
    602e:	48 8b 0d fb af 00 00 	mov    rcx,QWORD PTR [rip+0xaffb]        # 11030 <f_ou_th@@Base>
    6035:	48 8b 95 00 ff ff ff 	mov    rdx,QWORD PTR [rbp-0x100]
    603c:	48 c1 e2 03          	shl    rdx,0x3
    6040:	48 01 ca             	add    rdx,rcx
    6043:	48 8b 12             	mov    rdx,QWORD PTR [rdx]
    6046:	48 89 d6             	mov    rsi,rdx
    6049:	48 89 c7             	mov    rdi,rax
    604c:	e8 8f c3 ff ff       	call   23e0 <fputs@plt>
    6051:	48 8b 15 d8 af 00 00 	mov    rdx,QWORD PTR [rip+0xafd8]        # 11030 <f_ou_th@@Base>
    6058:	48 8b 85 00 ff ff ff 	mov    rax,QWORD PTR [rbp-0x100]
    605f:	48 c1 e0 03          	shl    rax,0x3
    6063:	48 01 d0             	add    rax,rdx
    6066:	48 8b 00             	mov    rax,QWORD PTR [rax]
    6069:	48 89 c7             	mov    rdi,rax
    606c:	e8 1f c4 ff ff       	call   2490 <fflush@plt>
    6071:	e9 e1 00 00 00       	jmp    6157 <TEST_permutation_t_float_trans____1+0x29a8>
    6076:	48 83 bd 00 ff ff ff 	cmp    QWORD PTR [rbp-0x100],0x0
    607d:	00 
    607e:	78 4f                	js     60cf <TEST_permutation_t_float_trans____1+0x2920>
    6080:	48 8b 85 f8 fd ff ff 	mov    rax,QWORD PTR [rbp-0x208]
    6087:	48 8b 0d a2 af 00 00 	mov    rcx,QWORD PTR [rip+0xafa2]        # 11030 <f_ou_th@@Base>
    608e:	48 8b 95 00 ff ff ff 	mov    rdx,QWORD PTR [rbp-0x100]
    6095:	48 c1 e2 03          	shl    rdx,0x3
    6099:	48 01 ca             	add    rdx,rcx
    609c:	48 8b 12             	mov    rdx,QWORD PTR [rdx]
    609f:	48 89 d6             	mov    rsi,rdx
    60a2:	48 89 c7             	mov    rdi,rax
    60a5:	e8 36 c3 ff ff       	call   23e0 <fputs@plt>
    60aa:	48 8b 15 7f af 00 00 	mov    rdx,QWORD PTR [rip+0xaf7f]        # 11030 <f_ou_th@@Base>
    60b1:	48 8b 85 00 ff ff ff 	mov    rax,QWORD PTR [rbp-0x100]
    60b8:	48 c1 e0 03          	shl    rax,0x3
    60bc:	48 01 d0             	add    rax,rdx
    60bf:	48 8b 00             	mov    rax,QWORD PTR [rax]
    60c2:	48 89 c7             	mov    rdi,rax
    60c5:	e8 c6 c3 ff ff       	call   2490 <fflush@plt>
    60ca:	e9 88 00 00 00       	jmp    6157 <TEST_permutation_t_float_trans____1+0x29a8>
    60cf:	48 8b 85 f8 fd ff ff 	mov    rax,QWORD PTR [rbp-0x208]
    60d6:	48 8b 15 4b af 00 00 	mov    rdx,QWORD PTR [rip+0xaf4b]        # 11028 <stdout@GLIBC_2.2.5>
    60dd:	48 89 d6             	mov    rsi,rdx
    60e0:	48 89 c7             	mov    rdi,rax
    60e3:	e8 f8 c2 ff ff       	call   23e0 <fputs@plt>
    60e8:	eb 6d                	jmp    6157 <TEST_permutation_t_float_trans____1+0x29a8>
    60ea:	48 8b 05 47 af 00 00 	mov    rax,QWORD PTR [rip+0xaf47]        # 11038 <savelog@@Base>
    60f1:	48 85 c0             	test   rax,rax
    60f4:	74 48                	je     613e <TEST_permutation_t_float_trans____1+0x298f>
    60f6:	48 8b 05 3b af 00 00 	mov    rax,QWORD PTR [rip+0xaf3b]        # 11038 <savelog@@Base>
    60fd:	48 8d 15 7b 7f 00 00 	lea    rdx,[rip+0x7f7b]        # e07f <_IO_stdin_used+0x7f>
    6104:	48 89 d6             	mov    rsi,rdx
    6107:	48 89 c7             	mov    rdi,rax
    610a:	e8 f1 c3 ff ff       	call   2500 <fopen@plt>
    610f:	48 89 85 f8 fe ff ff 	mov    QWORD PTR [rbp-0x108],rax
    6116:	48 8b 85 f8 fd ff ff 	mov    rax,QWORD PTR [rbp-0x208]
    611d:	48 8b 95 f8 fe ff ff 	mov    rdx,QWORD PTR [rbp-0x108]
    6124:	48 89 d6             	mov    rsi,rdx
    6127:	48 89 c7             	mov    rdi,rax
    612a:	e8 b1 c2 ff ff       	call   23e0 <fputs@plt>
    612f:	48 8b 85 f8 fe ff ff 	mov    rax,QWORD PTR [rbp-0x108]
    6136:	48 89 c7             	mov    rdi,rax
    6139:	e8 72 c2 ff ff       	call   23b0 <fclose@plt>
    613e:	48 8b 85 f8 fd ff ff 	mov    rax,QWORD PTR [rbp-0x208]
    6145:	48 8b 15 dc ae 00 00 	mov    rdx,QWORD PTR [rip+0xaedc]        # 11028 <stdout@GLIBC_2.2.5>
    614c:	48 89 d6             	mov    rsi,rdx
    614f:	48 89 c7             	mov    rdi,rax
    6152:	e8 89 c2 ff ff       	call   23e0 <fputs@plt>
    6157:	48 8b 85 f0 fe ff ff 	mov    rax,QWORD PTR [rbp-0x110]
    615e:	48 89 c7             	mov    rdi,rax
    6161:	e8 4a c2 ff ff       	call   23b0 <fclose@plt>
    6166:	48 8b 85 f8 fd ff ff 	mov    rax,QWORD PTR [rbp-0x208]
    616d:	48 89 c7             	mov    rdi,rax
    6170:	e8 bb c1 ff ff       	call   2330 <free@plt>
    6175:	83 85 e8 fd ff ff 01 	add    DWORD PTR [rbp-0x218],0x1
    617c:	8b 85 e8 fd ff ff    	mov    eax,DWORD PTR [rbp-0x218]
    6182:	48 63 d0             	movsxd rdx,eax
    6185:	48 8b 85 08 fe ff ff 	mov    rax,QWORD PTR [rbp-0x1f8]
    618c:	48 8b 00             	mov    rax,QWORD PTR [rax]
    618f:	48 39 c2             	cmp    rdx,rax
    6192:	0f 82 7d fd ff ff    	jb     5f15 <TEST_permutation_t_float_trans____1+0x2766>
    6198:	48 8d 95 f0 fd ff ff 	lea    rdx,[rbp-0x210]
    619f:	48 8d 85 f8 fd ff ff 	lea    rax,[rbp-0x208]
    61a6:	48 89 d6             	mov    rsi,rdx
    61a9:	48 89 c7             	mov    rdi,rax
    61ac:	e8 9f c1 ff ff       	call   2350 <open_memstream@plt>
    61b1:	48 89 85 d8 fe ff ff 	mov    QWORD PTR [rbp-0x128],rax
    61b8:	48 83 bd d8 fe ff ff 	cmp    QWORD PTR [rbp-0x128],0x0
    61bf:	00 
    61c0:	75 38                	jne    61fa <TEST_permutation_t_float_trans____1+0x2a4b>
    61c2:	48 8b 05 37 af 00 00 	mov    rax,QWORD PTR [rip+0xaf37]        # 11100 <stderr@GLIBC_2.2.5>
    61c9:	4c 8d 05 50 81 00 00 	lea    r8,[rip+0x8150]        # e320 <__func__.3>
    61d0:	b9 3a 00 00 00       	mov    ecx,0x3a
    61d5:	48 8d 15 68 7e 00 00 	lea    rdx,[rip+0x7e68]        # e044 <_IO_stdin_used+0x44>
    61dc:	48 8d 35 6d 7e 00 00 	lea    rsi,[rip+0x7e6d]        # e050 <_IO_stdin_used+0x50>
    61e3:	48 89 c7             	mov    rdi,rax
    61e6:	b8 00 00 00 00       	mov    eax,0x0
    61eb:	e8 70 c2 ff ff       	call   2460 <fprintf@plt>
    61f0:	bf 00 00 00 00       	mov    edi,0x0
    61f5:	e8 26 c3 ff ff       	call   2520 <exit@plt>
    61fa:	48 8b 85 d8 fe ff ff 	mov    rax,QWORD PTR [rbp-0x128]
    6201:	48 89 c6             	mov    rsi,rax
    6204:	bf 0a 00 00 00       	mov    edi,0xa
    6209:	e8 12 c2 ff ff       	call   2420 <fputc@plt>
    620e:	48 8b 85 d8 fe ff ff 	mov    rax,QWORD PTR [rbp-0x128]
    6215:	48 89 c7             	mov    rdi,rax
    6218:	e8 73 c2 ff ff       	call   2490 <fflush@plt>
    621d:	0f b6 05 6c ae 00 00 	movzx  eax,BYTE PTR [rip+0xae6c]        # 11090 <is_parallel_nb@@Base>
    6224:	84 c0                	test   al,al
    6226:	0f 84 01 01 00 00    	je     632d <TEST_permutation_t_float_trans____1+0x2b7e>
    622c:	e8 1f c2 ff ff       	call   2450 <id_of_thread_executed@plt>
    6231:	48 89 85 e8 fe ff ff 	mov    QWORD PTR [rbp-0x118],rax
    6238:	0f b6 05 e1 ad 00 00 	movzx  eax,BYTE PTR [rip+0xade1]        # 11020 <log_parallel@@Base>
    623f:	84 c0                	test   al,al
    6241:	74 76                	je     62b9 <TEST_permutation_t_float_trans____1+0x2b0a>
    6243:	48 8b 85 f8 fd ff ff 	mov    rax,QWORD PTR [rbp-0x208]
    624a:	48 8b 15 d7 ad 00 00 	mov    rdx,QWORD PTR [rip+0xadd7]        # 11028 <stdout@GLIBC_2.2.5>
    6251:	48 89 d6             	mov    rsi,rdx
    6254:	48 89 c7             	mov    rdi,rax
    6257:	e8 84 c1 ff ff       	call   23e0 <fputs@plt>
    625c:	48 83 bd e8 fe ff ff 	cmp    QWORD PTR [rbp-0x118],0x0
    6263:	00 
    6264:	0f 88 30 01 00 00    	js     639a <TEST_permutation_t_float_trans____1+0x2beb>
    626a:	48 8b 85 f8 fd ff ff 	mov    rax,QWORD PTR [rbp-0x208]
    6271:	48 8b 0d b8 ad 00 00 	mov    rcx,QWORD PTR [rip+0xadb8]        # 11030 <f_ou_th@@Base>
    6278:	48 8b 95 e8 fe ff ff 	mov    rdx,QWORD PTR [rbp-0x118]
    627f:	48 c1 e2 03          	shl    rdx,0x3
    6283:	48 01 ca             	add    rdx,rcx
    6286:	48 8b 12             	mov    rdx,QWORD PTR [rdx]
    6289:	48 89 d6             	mov    rsi,rdx
    628c:	48 89 c7             	mov    rdi,rax
    628f:	e8 4c c1 ff ff       	call   23e0 <fputs@plt>
    6294:	48 8b 15 95 ad 00 00 	mov    rdx,QWORD PTR [rip+0xad95]        # 11030 <f_ou_th@@Base>
    629b:	48 8b 85 e8 fe ff ff 	mov    rax,QWORD PTR [rbp-0x118]
    62a2:	48 c1 e0 03          	shl    rax,0x3
    62a6:	48 01 d0             	add    rax,rdx
    62a9:	48 8b 00             	mov    rax,QWORD PTR [rax]
    62ac:	48 89 c7             	mov    rdi,rax
    62af:	e8 dc c1 ff ff       	call   2490 <fflush@plt>
    62b4:	e9 e1 00 00 00       	jmp    639a <TEST_permutation_t_float_trans____1+0x2beb>
    62b9:	48 83 bd e8 fe ff ff 	cmp    QWORD PTR [rbp-0x118],0x0
    62c0:	00 
    62c1:	78 4f                	js     6312 <TEST_permutation_t_float_trans____1+0x2b63>
    62c3:	48 8b 85 f8 fd ff ff 	mov    rax,QWORD PTR [rbp-0x208]
    62ca:	48 8b 0d 5f ad 00 00 	mov    rcx,QWORD PTR [rip+0xad5f]        # 11030 <f_ou_th@@Base>
    62d1:	48 8b 95 e8 fe ff ff 	mov    rdx,QWORD PTR [rbp-0x118]
    62d8:	48 c1 e2 03          	shl    rdx,0x3
    62dc:	48 01 ca             	add    rdx,rcx
    62df:	48 8b 12             	mov    rdx,QWORD PTR [rdx]
    62e2:	48 89 d6             	mov    rsi,rdx
    62e5:	48 89 c7             	mov    rdi,rax
    62e8:	e8 f3 c0 ff ff       	call   23e0 <fputs@plt>
    62ed:	48 8b 15 3c ad 00 00 	mov    rdx,QWORD PTR [rip+0xad3c]        # 11030 <f_ou_th@@Base>
    62f4:	48 8b 85 e8 fe ff ff 	mov    rax,QWORD PTR [rbp-0x118]
    62fb:	48 c1 e0 03          	shl    rax,0x3
    62ff:	48 01 d0             	add    rax,rdx
    6302:	48 8b 00             	mov    rax,QWORD PTR [rax]
    6305:	48 89 c7             	mov    rdi,rax
    6308:	e8 83 c1 ff ff       	call   2490 <fflush@plt>
    630d:	e9 88 00 00 00       	jmp    639a <TEST_permutation_t_float_trans____1+0x2beb>
    6312:	48 8b 85 f8 fd ff ff 	mov    rax,QWORD PTR [rbp-0x208]
    6319:	48 8b 15 08 ad 00 00 	mov    rdx,QWORD PTR [rip+0xad08]        # 11028 <stdout@GLIBC_2.2.5>
    6320:	48 89 d6             	mov    rsi,rdx
    6323:	48 89 c7             	mov    rdi,rax
    6326:	e8 b5 c0 ff ff       	call   23e0 <fputs@plt>
    632b:	eb 6d                	jmp    639a <TEST_permutation_t_float_trans____1+0x2beb>
    632d:	48 8b 05 04 ad 00 00 	mov    rax,QWORD PTR [rip+0xad04]        # 11038 <savelog@@Base>
    6334:	48 85 c0             	test   rax,rax
    6337:	74 48                	je     6381 <TEST_permutation_t_float_trans____1+0x2bd2>
    6339:	48 8b 05 f8 ac 00 00 	mov    rax,QWORD PTR [rip+0xacf8]        # 11038 <savelog@@Base>
    6340:	48 8d 15 38 7d 00 00 	lea    rdx,[rip+0x7d38]        # e07f <_IO_stdin_used+0x7f>
    6347:	48 89 d6             	mov    rsi,rdx
    634a:	48 89 c7             	mov    rdi,rax
    634d:	e8 ae c1 ff ff       	call   2500 <fopen@plt>
    6352:	48 89 85 e0 fe ff ff 	mov    QWORD PTR [rbp-0x120],rax
    6359:	48 8b 85 f8 fd ff ff 	mov    rax,QWORD PTR [rbp-0x208]
    6360:	48 8b 95 e0 fe ff ff 	mov    rdx,QWORD PTR [rbp-0x120]
    6367:	48 89 d6             	mov    rsi,rdx
    636a:	48 89 c7             	mov    rdi,rax
    636d:	e8 6e c0 ff ff       	call   23e0 <fputs@plt>
    6372:	48 8b 85 e0 fe ff ff 	mov    rax,QWORD PTR [rbp-0x120]
    6379:	48 89 c7             	mov    rdi,rax
    637c:	e8 2f c0 ff ff       	call   23b0 <fclose@plt>
    6381:	48 8b 85 f8 fd ff ff 	mov    rax,QWORD PTR [rbp-0x208]
    6388:	48 8b 15 99 ac 00 00 	mov    rdx,QWORD PTR [rip+0xac99]        # 11028 <stdout@GLIBC_2.2.5>
    638f:	48 89 d6             	mov    rsi,rdx
    6392:	48 89 c7             	mov    rdi,rax
    6395:	e8 46 c0 ff ff       	call   23e0 <fputs@plt>
    639a:	48 8b 85 d8 fe ff ff 	mov    rax,QWORD PTR [rbp-0x128]
    63a1:	48 89 c7             	mov    rdi,rax
    63a4:	e8 07 c0 ff ff       	call   23b0 <fclose@plt>
    63a9:	48 8b 85 f8 fd ff ff 	mov    rax,QWORD PTR [rbp-0x208]
    63b0:	48 89 c7             	mov    rdi,rax
    63b3:	e8 78 bf ff ff       	call   2330 <free@plt>
    63b8:	90                   	nop
    63b9:	48 8b 45 e8          	mov    rax,QWORD PTR [rbp-0x18]
    63bd:	64 48 2b 04 25 28 00 	sub    rax,QWORD PTR fs:0x28
    63c4:	00 00 
    63c6:	74 05                	je     63cd <TEST_permutation_t_float_trans____1+0x2c1e>
    63c8:	e8 f3 bf ff ff       	call   23c0 <__stack_chk_fail@plt>
    63cd:	48 8b 5d f8          	mov    rbx,QWORD PTR [rbp-0x8]
    63d1:	c9                   	leave  
    63d2:	c3                   	ret    

00000000000063d3 <append_test_not_permutation_2>:
    63d3:	f3 0f 1e fa          	endbr64 
    63d7:	55                   	push   rbp
    63d8:	48 89 e5             	mov    rbp,rsp
    63db:	48 8d 05 ae 7d 00 00 	lea    rax,[rip+0x7dae]        # e190 <_IO_stdin_used+0x190>
    63e2:	48 89 c6             	mov    rsi,rax
    63e5:	48 8d 05 0a 00 00 00 	lea    rax,[rip+0xa]        # 63f6 <TEST_not_permutation_____2>
    63ec:	48 89 c7             	mov    rdi,rax
    63ef:	e8 4c bf ff ff       	call   2340 <append_func@plt>
    63f4:	5d                   	pop    rbp
    63f5:	c3                   	ret    

00000000000063f6 <TEST_not_permutation_____2>:
    63f6:	f3 0f 1e fa          	endbr64 
    63fa:	55                   	push   rbp
    63fb:	48 89 e5             	mov    rbp,rsp
    63fe:	53                   	push   rbx
    63ff:	48 81 ec 78 01 00 00 	sub    rsp,0x178
    6406:	64 48 8b 04 25 28 00 	mov    rax,QWORD PTR fs:0x28
    640d:	00 00 
    640f:	48 89 45 e8          	mov    QWORD PTR [rbp-0x18],rax
    6413:	31 c0                	xor    eax,eax
    6415:	c7 85 8c fe ff ff 08 	mov    DWORD PTR [rbp-0x174],0x8
    641c:	00 00 00 
    641f:	8b 85 8c fe ff ff    	mov    eax,DWORD PTR [rbp-0x174]
    6425:	48 98                	cdqe   
    6427:	48 89 c7             	mov    rdi,rax
    642a:	e8 e2 5e 00 00       	call   c311 <CREATE_PERMUTATION_TYPE_FLOAT>
    642f:	48 89 85 a0 fe ff ff 	mov    QWORD PTR [rbp-0x160],rax
    6436:	48 8d 95 90 fe ff ff 	lea    rdx,[rbp-0x170]
    643d:	48 8d 85 98 fe ff ff 	lea    rax,[rbp-0x168]
    6444:	48 89 d6             	mov    rsi,rdx
    6447:	48 89 c7             	mov    rdi,rax
    644a:	e8 01 bf ff ff       	call   2350 <open_memstream@plt>
    644f:	48 89 85 a8 fe ff ff 	mov    QWORD PTR [rbp-0x158],rax
    6456:	48 83 bd a8 fe ff ff 	cmp    QWORD PTR [rbp-0x158],0x0
    645d:	00 
    645e:	75 38                	jne    6498 <TEST_not_permutation_____2+0xa2>
    6460:	48 8b 05 99 ac 00 00 	mov    rax,QWORD PTR [rip+0xac99]        # 11100 <stderr@GLIBC_2.2.5>
    6467:	4c 8d 05 e2 7e 00 00 	lea    r8,[rip+0x7ee2]        # e350 <__func__.2>
    646e:	b9 46 00 00 00       	mov    ecx,0x46
    6473:	48 8d 15 ca 7b 00 00 	lea    rdx,[rip+0x7bca]        # e044 <_IO_stdin_used+0x44>
    647a:	48 8d 35 cf 7b 00 00 	lea    rsi,[rip+0x7bcf]        # e050 <_IO_stdin_used+0x50>
    6481:	48 89 c7             	mov    rdi,rax
    6484:	b8 00 00 00 00       	mov    eax,0x0
    6489:	e8 d2 bf ff ff       	call   2460 <fprintf@plt>
    648e:	bf 00 00 00 00       	mov    edi,0x0
    6493:	e8 88 c0 ff ff       	call   2520 <exit@plt>
    6498:	48 8b 85 a0 fe ff ff 	mov    rax,QWORD PTR [rbp-0x160]
    649f:	48 8b 10             	mov    rdx,QWORD PTR [rax]
    64a2:	48 8b 85 a8 fe ff ff 	mov    rax,QWORD PTR [rbp-0x158]
    64a9:	48 8d 0d c1 7b 00 00 	lea    rcx,[rip+0x7bc1]        # e071 <_IO_stdin_used+0x71>
    64b0:	48 89 ce             	mov    rsi,rcx
    64b3:	48 89 c7             	mov    rdi,rax
    64b6:	b8 00 00 00 00       	mov    eax,0x0
    64bb:	e8 a0 bf ff ff       	call   2460 <fprintf@plt>
    64c0:	48 8b 85 a8 fe ff ff 	mov    rax,QWORD PTR [rbp-0x158]
    64c7:	48 89 c7             	mov    rdi,rax
    64ca:	e8 c1 bf ff ff       	call   2490 <fflush@plt>
    64cf:	0f b6 05 ba ab 00 00 	movzx  eax,BYTE PTR [rip+0xabba]        # 11090 <is_parallel_nb@@Base>
    64d6:	84 c0                	test   al,al
    64d8:	0f 84 01 01 00 00    	je     65df <TEST_not_permutation_____2+0x1e9>
    64de:	e8 6d bf ff ff       	call   2450 <id_of_thread_executed@plt>
    64e3:	48 89 85 b8 fe ff ff 	mov    QWORD PTR [rbp-0x148],rax
    64ea:	0f b6 05 2f ab 00 00 	movzx  eax,BYTE PTR [rip+0xab2f]        # 11020 <log_parallel@@Base>
    64f1:	84 c0                	test   al,al
    64f3:	74 76                	je     656b <TEST_not_permutation_____2+0x175>
    64f5:	48 8b 85 98 fe ff ff 	mov    rax,QWORD PTR [rbp-0x168]
    64fc:	48 8b 15 25 ab 00 00 	mov    rdx,QWORD PTR [rip+0xab25]        # 11028 <stdout@GLIBC_2.2.5>
    6503:	48 89 d6             	mov    rsi,rdx
    6506:	48 89 c7             	mov    rdi,rax
    6509:	e8 d2 be ff ff       	call   23e0 <fputs@plt>
    650e:	48 83 bd b8 fe ff ff 	cmp    QWORD PTR [rbp-0x148],0x0
    6515:	00 
    6516:	0f 88 30 01 00 00    	js     664c <TEST_not_permutation_____2+0x256>
    651c:	48 8b 85 98 fe ff ff 	mov    rax,QWORD PTR [rbp-0x168]
    6523:	48 8b 0d 06 ab 00 00 	mov    rcx,QWORD PTR [rip+0xab06]        # 11030 <f_ou_th@@Base>
    652a:	48 8b 95 b8 fe ff ff 	mov    rdx,QWORD PTR [rbp-0x148]
    6531:	48 c1 e2 03          	shl    rdx,0x3
    6535:	48 01 ca             	add    rdx,rcx
    6538:	48 8b 12             	mov    rdx,QWORD PTR [rdx]
    653b:	48 89 d6             	mov    rsi,rdx
    653e:	48 89 c7             	mov    rdi,rax
    6541:	e8 9a be ff ff       	call   23e0 <fputs@plt>
    6546:	48 8b 15 e3 aa 00 00 	mov    rdx,QWORD PTR [rip+0xaae3]        # 11030 <f_ou_th@@Base>
    654d:	48 8b 85 b8 fe ff ff 	mov    rax,QWORD PTR [rbp-0x148]
    6554:	48 c1 e0 03          	shl    rax,0x3
    6558:	48 01 d0             	add    rax,rdx
    655b:	48 8b 00             	mov    rax,QWORD PTR [rax]
    655e:	48 89 c7             	mov    rdi,rax
    6561:	e8 2a bf ff ff       	call   2490 <fflush@plt>
    6566:	e9 e1 00 00 00       	jmp    664c <TEST_not_permutation_____2+0x256>
    656b:	48 83 bd b8 fe ff ff 	cmp    QWORD PTR [rbp-0x148],0x0
    6572:	00 
    6573:	78 4f                	js     65c4 <TEST_not_permutation_____2+0x1ce>
    6575:	48 8b 85 98 fe ff ff 	mov    rax,QWORD PTR [rbp-0x168]
    657c:	48 8b 0d ad aa 00 00 	mov    rcx,QWORD PTR [rip+0xaaad]        # 11030 <f_ou_th@@Base>
    6583:	48 8b 95 b8 fe ff ff 	mov    rdx,QWORD PTR [rbp-0x148]
    658a:	48 c1 e2 03          	shl    rdx,0x3
    658e:	48 01 ca             	add    rdx,rcx
    6591:	48 8b 12             	mov    rdx,QWORD PTR [rdx]
    6594:	48 89 d6             	mov    rsi,rdx
    6597:	48 89 c7             	mov    rdi,rax
    659a:	e8 41 be ff ff       	call   23e0 <fputs@plt>
    659f:	48 8b 15 8a aa 00 00 	mov    rdx,QWORD PTR [rip+0xaa8a]        # 11030 <f_ou_th@@Base>
    65a6:	48 8b 85 b8 fe ff ff 	mov    rax,QWORD PTR [rbp-0x148]
    65ad:	48 c1 e0 03          	shl    rax,0x3
    65b1:	48 01 d0             	add    rax,rdx
    65b4:	48 8b 00             	mov    rax,QWORD PTR [rax]
    65b7:	48 89 c7             	mov    rdi,rax
    65ba:	e8 d1 be ff ff       	call   2490 <fflush@plt>
    65bf:	e9 88 00 00 00       	jmp    664c <TEST_not_permutation_____2+0x256>
    65c4:	48 8b 85 98 fe ff ff 	mov    rax,QWORD PTR [rbp-0x168]
    65cb:	48 8b 15 56 aa 00 00 	mov    rdx,QWORD PTR [rip+0xaa56]        # 11028 <stdout@GLIBC_2.2.5>
    65d2:	48 89 d6             	mov    rsi,rdx
    65d5:	48 89 c7             	mov    rdi,rax
    65d8:	e8 03 be ff ff       	call   23e0 <fputs@plt>
    65dd:	eb 6d                	jmp    664c <TEST_not_permutation_____2+0x256>
    65df:	48 8b 05 52 aa 00 00 	mov    rax,QWORD PTR [rip+0xaa52]        # 11038 <savelog@@Base>
    65e6:	48 85 c0             	test   rax,rax
    65e9:	74 48                	je     6633 <TEST_not_permutation_____2+0x23d>
    65eb:	48 8b 05 46 aa 00 00 	mov    rax,QWORD PTR [rip+0xaa46]        # 11038 <savelog@@Base>
    65f2:	48 8d 15 86 7a 00 00 	lea    rdx,[rip+0x7a86]        # e07f <_IO_stdin_used+0x7f>
    65f9:	48 89 d6             	mov    rsi,rdx
    65fc:	48 89 c7             	mov    rdi,rax
    65ff:	e8 fc be ff ff       	call   2500 <fopen@plt>
    6604:	48 89 85 b0 fe ff ff 	mov    QWORD PTR [rbp-0x150],rax
    660b:	48 8b 85 98 fe ff ff 	mov    rax,QWORD PTR [rbp-0x168]
    6612:	48 8b 95 b0 fe ff ff 	mov    rdx,QWORD PTR [rbp-0x150]
    6619:	48 89 d6             	mov    rsi,rdx
    661c:	48 89 c7             	mov    rdi,rax
    661f:	e8 bc bd ff ff       	call   23e0 <fputs@plt>
    6624:	48 8b 85 b0 fe ff ff 	mov    rax,QWORD PTR [rbp-0x150]
    662b:	48 89 c7             	mov    rdi,rax
    662e:	e8 7d bd ff ff       	call   23b0 <fclose@plt>
    6633:	48 8b 85 98 fe ff ff 	mov    rax,QWORD PTR [rbp-0x168]
    663a:	48 8b 15 e7 a9 00 00 	mov    rdx,QWORD PTR [rip+0xa9e7]        # 11028 <stdout@GLIBC_2.2.5>
    6641:	48 89 d6             	mov    rsi,rdx
    6644:	48 89 c7             	mov    rdi,rax
    6647:	e8 94 bd ff ff       	call   23e0 <fputs@plt>
    664c:	48 8b 85 a8 fe ff ff 	mov    rax,QWORD PTR [rbp-0x158]
    6653:	48 89 c7             	mov    rdi,rax
    6656:	e8 55 bd ff ff       	call   23b0 <fclose@plt>
    665b:	48 8b 85 98 fe ff ff 	mov    rax,QWORD PTR [rbp-0x168]
    6662:	48 89 c7             	mov    rdi,rax
    6665:	e8 c6 bc ff ff       	call   2330 <free@plt>
    666a:	0f b6 05 1f aa 00 00 	movzx  eax,BYTE PTR [rip+0xaa1f]        # 11090 <is_parallel_nb@@Base>
    6671:	83 f0 01             	xor    eax,0x1
    6674:	84 c0                	test   al,al
    6676:	0f 84 c2 07 00 00    	je     6e3e <TEST_not_permutation_____2+0xa48>
    667c:	8b 85 8c fe ff ff    	mov    eax,DWORD PTR [rbp-0x174]
    6682:	48 98                	cdqe   
    6684:	48 8b 95 a0 fe ff ff 	mov    rdx,QWORD PTR [rbp-0x160]
    668b:	48 8b 12             	mov    rdx,QWORD PTR [rdx]
    668e:	48 89 c6             	mov    rsi,rax
    6691:	48 89 d7             	mov    rdi,rdx
    6694:	e8 67 bd ff ff       	call   2400 <expected_EQ_TYPE_L_INT@plt>
    6699:	84 c0                	test   al,al
    669b:	0f 84 87 02 00 00    	je     6928 <TEST_not_permutation_____2+0x532>
    66a1:	48 8d 95 90 fe ff ff 	lea    rdx,[rbp-0x170]
    66a8:	48 8d 85 98 fe ff ff 	lea    rax,[rbp-0x168]
    66af:	48 89 d6             	mov    rsi,rdx
    66b2:	48 89 c7             	mov    rdi,rax
    66b5:	e8 96 bc ff ff       	call   2350 <open_memstream@plt>
    66ba:	48 89 85 38 ff ff ff 	mov    QWORD PTR [rbp-0xc8],rax
    66c1:	48 83 bd 38 ff ff ff 	cmp    QWORD PTR [rbp-0xc8],0x0
    66c8:	00 
    66c9:	75 38                	jne    6703 <TEST_not_permutation_____2+0x30d>
    66cb:	48 8b 05 2e aa 00 00 	mov    rax,QWORD PTR [rip+0xaa2e]        # 11100 <stderr@GLIBC_2.2.5>
    66d2:	4c 8d 05 77 7c 00 00 	lea    r8,[rip+0x7c77]        # e350 <__func__.2>
    66d9:	b9 47 00 00 00       	mov    ecx,0x47
    66de:	48 8d 15 5f 79 00 00 	lea    rdx,[rip+0x795f]        # e044 <_IO_stdin_used+0x44>
    66e5:	48 8d 35 64 79 00 00 	lea    rsi,[rip+0x7964]        # e050 <_IO_stdin_used+0x50>
    66ec:	48 89 c7             	mov    rdi,rax
    66ef:	b8 00 00 00 00       	mov    eax,0x0
    66f4:	e8 67 bd ff ff       	call   2460 <fprintf@plt>
    66f9:	bf 00 00 00 00       	mov    edi,0x0
    66fe:	e8 1d be ff ff       	call   2520 <exit@plt>
    6703:	8b 05 97 a9 00 00    	mov    eax,DWORD PTR [rip+0xa997]        # 110a0 <k_DEFAULT@@Base>
    6709:	48 98                	cdqe   
    670b:	48 8d 14 c5 00 00 00 	lea    rdx,[rax*8+0x0]
    6712:	00 
    6713:	48 8d 05 a6 a9 00 00 	lea    rax,[rip+0xa9a6]        # 110c0 <colors_f@@Base>
    671a:	48 8b 34 02          	mov    rsi,QWORD PTR [rdx+rax*1]
    671e:	8b 05 5c a9 00 00    	mov    eax,DWORD PTR [rip+0xa95c]        # 11080 <hk_TR@@Base>
    6724:	48 98                	cdqe   
    6726:	48 8d 14 c5 00 00 00 	lea    rdx,[rax*8+0x0]
    672d:	00 
    672e:	48 8d 05 0b a9 00 00 	lea    rax,[rip+0xa90b]        # 11040 <tab_hk_f@@Base>
    6735:	48 8b 0c 02          	mov    rcx,QWORD PTR [rdx+rax*1]
    6739:	8b 05 b1 a9 00 00    	mov    eax,DWORD PTR [rip+0xa9b1]        # 110f0 <k_GREEN@@Base>
    673f:	48 98                	cdqe   
    6741:	48 8d 14 c5 00 00 00 	lea    rdx,[rax*8+0x0]
    6748:	00 
    6749:	48 8d 05 70 a9 00 00 	lea    rax,[rip+0xa970]        # 110c0 <colors_f@@Base>
    6750:	48 8b 14 02          	mov    rdx,QWORD PTR [rdx+rax*1]
    6754:	48 8b 85 38 ff ff ff 	mov    rax,QWORD PTR [rbp-0xc8]
    675b:	4c 8d 0d ee 7b 00 00 	lea    r9,[rip+0x7bee]        # e350 <__func__.2>
    6762:	49 89 f0             	mov    r8,rsi
    6765:	48 8d 35 1c 79 00 00 	lea    rsi,[rip+0x791c]        # e088 <_IO_stdin_used+0x88>
    676c:	48 89 c7             	mov    rdi,rax
    676f:	b8 00 00 00 00       	mov    eax,0x0
    6774:	e8 e7 bc ff ff       	call   2460 <fprintf@plt>
    6779:	48 8b 85 38 ff ff ff 	mov    rax,QWORD PTR [rbp-0xc8]
    6780:	48 89 c7             	mov    rdi,rax
    6783:	e8 08 bd ff ff       	call   2490 <fflush@plt>
    6788:	0f b6 05 01 a9 00 00 	movzx  eax,BYTE PTR [rip+0xa901]        # 11090 <is_parallel_nb@@Base>
    678f:	84 c0                	test   al,al
    6791:	0f 84 01 01 00 00    	je     6898 <TEST_not_permutation_____2+0x4a2>
    6797:	e8 b4 bc ff ff       	call   2450 <id_of_thread_executed@plt>
    679c:	48 89 85 48 ff ff ff 	mov    QWORD PTR [rbp-0xb8],rax
    67a3:	0f b6 05 76 a8 00 00 	movzx  eax,BYTE PTR [rip+0xa876]        # 11020 <log_parallel@@Base>
    67aa:	84 c0                	test   al,al
    67ac:	74 76                	je     6824 <TEST_not_permutation_____2+0x42e>
    67ae:	48 8b 85 98 fe ff ff 	mov    rax,QWORD PTR [rbp-0x168]
    67b5:	48 8b 15 6c a8 00 00 	mov    rdx,QWORD PTR [rip+0xa86c]        # 11028 <stdout@GLIBC_2.2.5>
    67bc:	48 89 d6             	mov    rsi,rdx
    67bf:	48 89 c7             	mov    rdi,rax
    67c2:	e8 19 bc ff ff       	call   23e0 <fputs@plt>
    67c7:	48 83 bd 48 ff ff ff 	cmp    QWORD PTR [rbp-0xb8],0x0
    67ce:	00 
    67cf:	0f 88 30 01 00 00    	js     6905 <TEST_not_permutation_____2+0x50f>
    67d5:	48 8b 85 98 fe ff ff 	mov    rax,QWORD PTR [rbp-0x168]
    67dc:	48 8b 0d 4d a8 00 00 	mov    rcx,QWORD PTR [rip+0xa84d]        # 11030 <f_ou_th@@Base>
    67e3:	48 8b 95 48 ff ff ff 	mov    rdx,QWORD PTR [rbp-0xb8]
    67ea:	48 c1 e2 03          	shl    rdx,0x3
    67ee:	48 01 ca             	add    rdx,rcx
    67f1:	48 8b 12             	mov    rdx,QWORD PTR [rdx]
    67f4:	48 89 d6             	mov    rsi,rdx
    67f7:	48 89 c7             	mov    rdi,rax
    67fa:	e8 e1 bb ff ff       	call   23e0 <fputs@plt>
    67ff:	48 8b 15 2a a8 00 00 	mov    rdx,QWORD PTR [rip+0xa82a]        # 11030 <f_ou_th@@Base>
    6806:	48 8b 85 48 ff ff ff 	mov    rax,QWORD PTR [rbp-0xb8]
    680d:	48 c1 e0 03          	shl    rax,0x3
    6811:	48 01 d0             	add    rax,rdx
    6814:	48 8b 00             	mov    rax,QWORD PTR [rax]
    6817:	48 89 c7             	mov    rdi,rax
    681a:	e8 71 bc ff ff       	call   2490 <fflush@plt>
    681f:	e9 e1 00 00 00       	jmp    6905 <TEST_not_permutation_____2+0x50f>
    6824:	48 83 bd 48 ff ff ff 	cmp    QWORD PTR [rbp-0xb8],0x0
    682b:	00 
    682c:	78 4f                	js     687d <TEST_not_permutation_____2+0x487>
    682e:	48 8b 85 98 fe ff ff 	mov    rax,QWORD PTR [rbp-0x168]
    6835:	48 8b 0d f4 a7 00 00 	mov    rcx,QWORD PTR [rip+0xa7f4]        # 11030 <f_ou_th@@Base>
    683c:	48 8b 95 48 ff ff ff 	mov    rdx,QWORD PTR [rbp-0xb8]
    6843:	48 c1 e2 03          	shl    rdx,0x3
    6847:	48 01 ca             	add    rdx,rcx
    684a:	48 8b 12             	mov    rdx,QWORD PTR [rdx]
    684d:	48 89 d6             	mov    rsi,rdx
    6850:	48 89 c7             	mov    rdi,rax
    6853:	e8 88 bb ff ff       	call   23e0 <fputs@plt>
    6858:	48 8b 15 d1 a7 00 00 	mov    rdx,QWORD PTR [rip+0xa7d1]        # 11030 <f_ou_th@@Base>
    685f:	48 8b 85 48 ff ff ff 	mov    rax,QWORD PTR [rbp-0xb8]
    6866:	48 c1 e0 03          	shl    rax,0x3
    686a:	48 01 d0             	add    rax,rdx
    686d:	48 8b 00             	mov    rax,QWORD PTR [rax]
    6870:	48 89 c7             	mov    rdi,rax
    6873:	e8 18 bc ff ff       	call   2490 <fflush@plt>
    6878:	e9 88 00 00 00       	jmp    6905 <TEST_not_permutation_____2+0x50f>
    687d:	48 8b 85 98 fe ff ff 	mov    rax,QWORD PTR [rbp-0x168]
    6884:	48 8b 15 9d a7 00 00 	mov    rdx,QWORD PTR [rip+0xa79d]        # 11028 <stdout@GLIBC_2.2.5>
    688b:	48 89 d6             	mov    rsi,rdx
    688e:	48 89 c7             	mov    rdi,rax
    6891:	e8 4a bb ff ff       	call   23e0 <fputs@plt>
    6896:	eb 6d                	jmp    6905 <TEST_not_permutation_____2+0x50f>
    6898:	48 8b 05 99 a7 00 00 	mov    rax,QWORD PTR [rip+0xa799]        # 11038 <savelog@@Base>
    689f:	48 85 c0             	test   rax,rax
    68a2:	74 48                	je     68ec <TEST_not_permutation_____2+0x4f6>
    68a4:	48 8b 05 8d a7 00 00 	mov    rax,QWORD PTR [rip+0xa78d]        # 11038 <savelog@@Base>
    68ab:	48 8d 15 cd 77 00 00 	lea    rdx,[rip+0x77cd]        # e07f <_IO_stdin_used+0x7f>
    68b2:	48 89 d6             	mov    rsi,rdx
    68b5:	48 89 c7             	mov    rdi,rax
    68b8:	e8 43 bc ff ff       	call   2500 <fopen@plt>
    68bd:	48 89 85 40 ff ff ff 	mov    QWORD PTR [rbp-0xc0],rax
    68c4:	48 8b 85 98 fe ff ff 	mov    rax,QWORD PTR [rbp-0x168]
    68cb:	48 8b 95 40 ff ff ff 	mov    rdx,QWORD PTR [rbp-0xc0]
    68d2:	48 89 d6             	mov    rsi,rdx
    68d5:	48 89 c7             	mov    rdi,rax
    68d8:	e8 03 bb ff ff       	call   23e0 <fputs@plt>
    68dd:	48 8b 85 40 ff ff ff 	mov    rax,QWORD PTR [rbp-0xc0]
    68e4:	48 89 c7             	mov    rdi,rax
    68e7:	e8 c4 ba ff ff       	call   23b0 <fclose@plt>
    68ec:	48 8b 85 98 fe ff ff 	mov    rax,QWORD PTR [rbp-0x168]
    68f3:	48 8b 15 2e a7 00 00 	mov    rdx,QWORD PTR [rip+0xa72e]        # 11028 <stdout@GLIBC_2.2.5>
    68fa:	48 89 d6             	mov    rsi,rdx
    68fd:	48 89 c7             	mov    rdi,rax
    6900:	e8 db ba ff ff       	call   23e0 <fputs@plt>
    6905:	48 8b 85 38 ff ff ff 	mov    rax,QWORD PTR [rbp-0xc8]
    690c:	48 89 c7             	mov    rdi,rax
    690f:	e8 9c ba ff ff       	call   23b0 <fclose@plt>
    6914:	48 8b 85 98 fe ff ff 	mov    rax,QWORD PTR [rbp-0x168]
    691b:	48 89 c7             	mov    rdi,rax
    691e:	e8 0d ba ff ff       	call   2330 <free@plt>
    6923:	e9 dd 0c 00 00       	jmp    7605 <TEST_not_permutation_____2+0x120f>
    6928:	48 8d 95 90 fe ff ff 	lea    rdx,[rbp-0x170]
    692f:	48 8d 85 98 fe ff ff 	lea    rax,[rbp-0x168]
    6936:	48 89 d6             	mov    rsi,rdx
    6939:	48 89 c7             	mov    rdi,rax
